
bomb:     file format elf64-x86-64

Contents of section .interp:
 400200 2f6c6962 36342f6c 642d6c69 6e75782d  /lib64/ld-linux-
 400210 7838362d 36342e73 6f2e3200           x86-64.so.2.    
Contents of section .note.ABI-tag:
 40021c 04000000 10000000 01000000 474e5500  ............GNU.
 40022c 00000000 02000000 06000000 12000000  ................
Contents of section .hash:
 400240 11000000 24000000 19000000 18000000  ....$...........
 400250 1b000000 1f000000 05000000 0e000000  ................
 400260 10000000 13000000 1c000000 00000000  ................
 400270 20000000 22000000 1e000000 07000000   ..."...........
 400280 21000000 23000000 00000000 00000000  !...#...........
 400290 00000000 00000000 00000000 00000000  ................
 4002a0 00000000 00000000 00000000 00000000  ................
 4002b0 01000000 00000000 09000000 04000000  ................
 4002c0 00000000 08000000 06000000 03000000  ................
 4002d0 0b000000 00000000 0a000000 0f000000  ................
 4002e0 0d000000 14000000 00000000 00000000  ................
 4002f0 16000000 17000000 12000000 1a000000  ................
 400300 0c000000 00000000 02000000 11000000  ................
 400310 15000000 00000000 1d000000           ............    
Contents of section .dynsym:
 400320 00000000 00000000 00000000 00000000  ................
 400330 00000000 00000000 f7000000 12000000  ................
 400340 00000000 00000000 00000000 00000000  ................
 400350 9e000000 12000000 00000000 00000000  ................
 400360 00000000 00000000 cb000000 12000000  ................
 400370 00000000 00000000 00000000 00000000  ................
 400380 01000000 20000000 00000000 00000000  .... ...........
 400390 00000000 00000000 69000000 12000000  ........i.......
 4003a0 00000000 00000000 00000000 00000000  ................
 4003b0 4a000000 12000000 00000000 00000000  J...............
 4003c0 00000000 00000000 37000000 12000000  ........7.......
 4003d0 00000000 00000000 00000000 00000000  ................
 4003e0 a4000000 12000000 00000000 00000000  ................
 4003f0 00000000 00000000 44000000 12000000  ........D.......
 400400 00000000 00000000 00000000 00000000  ................
 400410 04010000 12000000 00000000 00000000  ................
 400420 00000000 00000000 d9000000 12000000  ................
 400430 00000000 00000000 00000000 00000000  ................
 400440 c4000000 12000000 00000000 00000000  ................
 400450 00000000 00000000 82000000 12000000  ................
 400460 00000000 00000000 00000000 00000000  ................
 400470 97000000 12000000 00000000 00000000  ................
 400480 00000000 00000000 f0000000 12000000  ................
 400490 00000000 00000000 00000000 00000000  ................
 4004a0 b6000000 12000000 00000000 00000000  ................
 4004b0 00000000 00000000 3c000000 12000000  ........<.......
 4004c0 00000000 00000000 00000000 00000000  ................
 4004d0 6e000000 11001800 c0416000 00000000  n........A`.....
 4004e0 08000000 00000000 53000000 12000000  ........S.......
 4004f0 00000000 00000000 00000000 00000000  ................
 400500 fe000000 12000000 00000000 00000000  ................
 400510 00000000 00000000 74000000 12000000  ........t.......
 400520 00000000 00000000 00000000 00000000  ................
 400530 7b000000 12000000 00000000 00000000  {...............
 400540 00000000 00000000 5a000000 12000000  ........Z.......
 400550 00000000 00000000 00000000 00000000  ................
 400560 dd000000 12000000 00000000 00000000  ................
 400570 00000000 00000000 88000000 12000000  ................
 400580 00000000 00000000 00000000 00000000  ................
 400590 62000000 12000000 00000000 00000000  b...............
 4005a0 00000000 00000000 1a000000 12000000  ................
 4005b0 00000000 00000000 00000000 00000000  ................
 4005c0 af000000 12000000 00000000 00000000  ................
 4005d0 00000000 00000000 21000000 12000000  ........!.......
 4005e0 00000000 00000000 00000000 00000000  ................
 4005f0 30000000 12000000 00000000 00000000  0...............
 400600 00000000 00000000 9d000000 12000000  ................
 400610 00000000 00000000 00000000 00000000  ................
 400620 e9000000 12000000 00000000 00000000  ................
 400630 00000000 00000000 f6000000 12000000  ................
 400640 00000000 00000000 00000000 00000000  ................
 400650 90000000 11001800 d0416000 00000000  .........A`.....
 400660 08000000 00000000 29000000 12000000  ........).......
 400670 00000000 00000000 00000000 00000000  ................
Contents of section .dynstr:
 400680 005f5f67 6d6f6e5f 73746172 745f5f00  .__gmon_start__.
 400690 6c696263 2e736f2e 3600736f 636b6574  libc.so.6.socket
 4006a0 00637573 65726964 0066666c 75736800  .cuserid.fflush.
 4006b0 73747263 70790065 78697400 73707269  strcpy.exit.spri
 4006c0 6e746600 666f7065 6e005f5f 69736f63  ntf.fopen.__isoc
 4006d0 39395f73 7363616e 6600636f 6e6e6563  99_sscanf.connec
 4006e0 74007369 676e616c 00707574 73007374  t.signal.puts.st
 4006f0 64696e00 72657769 6e640073 7472746f  din.rewind.strto
 400700 6c006667 65747300 746d7066 696c6500  l.fgets.tmpfile.
 400710 7374646f 75740066 70757463 0066636c  stdout.fputc.fcl
 400720 6f736500 73747263 61736563 6d700067  ose.strcasecmp.g
 400730 6574656e 76005f5f 63747970 655f625f  etenv.__ctype_b_
 400740 6c6f6300 73797374 656d0067 6574686f  loc.system.getho
 400750 73746279 6e616d65 00647570 00676574  stbyname.dup.get
 400760 686f7374 6e616d65 00667772 69746500  hostname.fwrite.
 400770 62636f70 79006670 72696e74 6600736c  bcopy.fprintf.sl
 400780 65657000 5f5f6c69 62635f73 74617274  eep.__libc_start
 400790 5f6d6169 6e00474c 4942435f 322e3300  _main.GLIBC_2.3.
 4007a0 474c4942 435f322e 3700474c 4942435f  GLIBC_2.7.GLIBC_
 4007b0 322e322e 3500                        2.2.5.          
Contents of section .gnu.version:
 4007b6 00000200 02000200 00000200 03000200  ................
 4007c6 02000200 02000200 02000200 02000200  ................
 4007d6 04000200 02000200 02000200 02000200  ................
 4007e6 02000200 02000200 02000200 02000200  ................
 4007f6 02000200 02000200                    ........        
Contents of section .gnu.version_r:
 400800 01000300 10000000 10000000 00000000  ................
 400810 1369690d 00000400 16010000 10000000  .ii.............
 400820 1769690d 00000300 20010000 10000000  .ii..... .......
 400830 751a6909 00000200 2a010000 00000000  u.i.....*.......
Contents of section .rela.dyn:
 400840 e8316000 00000000 06000000 04000000  .1`.............
 400850 00000000 00000000 c0416000 00000000  .........A`.....
 400860 05000000 12000000 00000000 00000000  ................
 400870 d0416000 00000000 05000000 22000000  .A`........."...
 400880 00000000 00000000                    ........        
Contents of section .rela.plt:
 400888 08326000 00000000 07000000 01000000  .2`.............
 400898 00000000 00000000 10326000 00000000  .........2`.....
 4008a8 07000000 02000000 00000000 00000000  ................
 4008b8 18326000 00000000 07000000 03000000  .2`.............
 4008c8 00000000 00000000 20326000 00000000  ........ 2`.....
 4008d8 07000000 05000000 00000000 00000000  ................
 4008e8 28326000 00000000 07000000 06000000  (2`.............
 4008f8 00000000 00000000 30326000 00000000  ........02`.....
 400908 07000000 07000000 00000000 00000000  ................
 400918 38326000 00000000 07000000 08000000  82`.............
 400928 00000000 00000000 40326000 00000000  ........@2`.....
 400938 07000000 09000000 00000000 00000000  ................
 400948 48326000 00000000 07000000 0a000000  H2`.............
 400958 00000000 00000000 50326000 00000000  ........P2`.....
 400968 07000000 0b000000 00000000 00000000  ................
 400978 58326000 00000000 07000000 0c000000  X2`.............
 400988 00000000 00000000 60326000 00000000  ........`2`.....
 400998 07000000 0d000000 00000000 00000000  ................
 4009a8 68326000 00000000 07000000 0e000000  h2`.............
 4009b8 00000000 00000000 70326000 00000000  ........p2`.....
 4009c8 07000000 0f000000 00000000 00000000  ................
 4009d8 78326000 00000000 07000000 10000000  x2`.............
 4009e8 00000000 00000000 80326000 00000000  .........2`.....
 4009f8 07000000 11000000 00000000 00000000  ................
 400a08 88326000 00000000 07000000 13000000  .2`.............
 400a18 00000000 00000000 90326000 00000000  .........2`.....
 400a28 07000000 14000000 00000000 00000000  ................
 400a38 98326000 00000000 07000000 15000000  .2`.............
 400a48 00000000 00000000 a0326000 00000000  .........2`.....
 400a58 07000000 16000000 00000000 00000000  ................
 400a68 a8326000 00000000 07000000 17000000  .2`.............
 400a78 00000000 00000000 b0326000 00000000  .........2`.....
 400a88 07000000 18000000 00000000 00000000  ................
 400a98 b8326000 00000000 07000000 19000000  .2`.............
 400aa8 00000000 00000000 c0326000 00000000  .........2`.....
 400ab8 07000000 1a000000 00000000 00000000  ................
 400ac8 c8326000 00000000 07000000 1b000000  .2`.............
 400ad8 00000000 00000000 d0326000 00000000  .........2`.....
 400ae8 07000000 1c000000 00000000 00000000  ................
 400af8 d8326000 00000000 07000000 1d000000  .2`.............
 400b08 00000000 00000000 e0326000 00000000  .........2`.....
 400b18 07000000 1e000000 00000000 00000000  ................
 400b28 e8326000 00000000 07000000 1f000000  .2`.............
 400b38 00000000 00000000 f0326000 00000000  .........2`.....
 400b48 07000000 20000000 00000000 00000000  .... ...........
 400b58 f8326000 00000000 07000000 21000000  .2`.........!...
 400b68 00000000 00000000 00336000 00000000  .........3`.....
 400b78 07000000 23000000 00000000 00000000  ....#...........
Contents of section .init:
 400b88 4883ec08 e84b0200 00e84a03 0000e8d5  H....K....J.....
 400b98 0f000048 83c408c3                    ...H....        
Contents of section .plt:
 400ba0 ff355226 2000ff25 54262000 0f1f4000  .5R& ..%T& ...@.
 400bb0 ff255226 20006800 000000e9 e0ffffff  .%R& .h.........
 400bc0 ff254a26 20006801 000000e9 d0ffffff  .%J& .h.........
 400bd0 ff254226 20006802 000000e9 c0ffffff  .%B& .h.........
 400be0 ff253a26 20006803 000000e9 b0ffffff  .%:& .h.........
 400bf0 ff253226 20006804 000000e9 a0ffffff  .%2& .h.........
 400c00 ff252a26 20006805 000000e9 90ffffff  .%*& .h.........
 400c10 ff252226 20006806 000000e9 80ffffff  .%"& .h.........
 400c20 ff251a26 20006807 000000e9 70ffffff  .%.& .h.....p...
 400c30 ff251226 20006808 000000e9 60ffffff  .%.& .h.....`...
 400c40 ff250a26 20006809 000000e9 50ffffff  .%.& .h.....P...
 400c50 ff250226 2000680a 000000e9 40ffffff  .%.& .h.....@...
 400c60 ff25fa25 2000680b 000000e9 30ffffff  .%.% .h.....0...
 400c70 ff25f225 2000680c 000000e9 20ffffff  .%.% .h..... ...
 400c80 ff25ea25 2000680d 000000e9 10ffffff  .%.% .h.........
 400c90 ff25e225 2000680e 000000e9 00ffffff  .%.% .h.........
 400ca0 ff25da25 2000680f 000000e9 f0feffff  .%.% .h.........
 400cb0 ff25d225 20006810 000000e9 e0feffff  .%.% .h.........
 400cc0 ff25ca25 20006811 000000e9 d0feffff  .%.% .h.........
 400cd0 ff25c225 20006812 000000e9 c0feffff  .%.% .h.........
 400ce0 ff25ba25 20006813 000000e9 b0feffff  .%.% .h.........
 400cf0 ff25b225 20006814 000000e9 a0feffff  .%.% .h.........
 400d00 ff25aa25 20006815 000000e9 90feffff  .%.% .h.........
 400d10 ff25a225 20006816 000000e9 80feffff  .%.% .h.........
 400d20 ff259a25 20006817 000000e9 70feffff  .%.% .h.....p...
 400d30 ff259225 20006818 000000e9 60feffff  .%.% .h.....`...
 400d40 ff258a25 20006819 000000e9 50feffff  .%.% .h.....P...
 400d50 ff258225 2000681a 000000e9 40feffff  .%.% .h.....@...
 400d60 ff257a25 2000681b 000000e9 30feffff  .%z% .h.....0...
 400d70 ff257225 2000681c 000000e9 20feffff  .%r% .h..... ...
 400d80 ff256a25 2000681d 000000e9 10feffff  .%j% .h.........
 400d90 ff256225 2000681e 000000e9 00feffff  .%b% .h.........
 400da0 ff255a25 2000681f 000000e9 f0fdffff  .%Z% .h.........
Contents of section .text:
 400db0 31ed4989 d15e4889 e24883e4 f0505449  1.I..^H..H...PTI
 400dc0 c7c0d01a 400048c7 c1e01a40 0048c7c7  ....@.H....@.H..
 400dd0 100f4000 e857feff fff49090 4883ec08  ..@..W......H...
 400de0 488b0501 24200048 85c07402 ffd04883  H...$ .H..t...H.
 400df0 c408c390 90909090 90909090 90909090  ................
 400e00 b8b74160 0055482d b0416000 4883f80e  ..A`.UH-.A`.H...
 400e10 4889e577 025dc3b8 00000000 4885c074  H..w.]......H..t
 400e20 f45dbfb0 416000ff e00f1f80 00000000  .]..A`..........
 400e30 b8b04160 0055482d b0416000 48c1f803  ..A`.UH-.A`.H...
 400e40 4889e548 89c248c1 ea3f4801 d048d1f8  H..H..H..?H..H..
 400e50 75025dc3 ba000000 004885d2 74f45d48  u.]......H..t.]H
 400e60 89c6bfb0 416000ff e20f1f80 00000000  ....A`..........
 400e70 803d6133 20000075 5f554889 e553bb48  .=a3 ..u_UH..S.H
 400e80 30600048 81eb4030 60004883 ec08488b  0`.H..@0`.H...H.
 400e90 054b3320 0048c1fb 034883eb 014839d8  .K3 .H...H...H9.
 400ea0 7324660f 1f440000 4883c001 4889052d  s$f..D..H...H..-
 400eb0 332000ff 14c54030 6000488b 051f3320  3 ....@0`.H...3 
 400ec0 004839d8 72e2e835 ffffffc6 05063320  .H9.r..5......3 
 400ed0 00014883 c4085b5d c30f1f80 00000000  ..H...[]........
 400ee0 48833d68 21200000 741eb800 00000048  H.=h! ..t......H
 400ef0 85c07414 55bf5030 60004889 e5ffd05d  ..t.U.P0`.H....]
 400f00 e92bffff ff0f1f00 e923ffff ff909090  .+.......#......
 400f10 5383ff01 7510488b 05a33220 00488905  S...u.H...2 .H..
 400f20 cc322000 eb594889 f383ff02 7535488b  .2 ..YH.....u5H.
 400f30 7e08becd 294000e8 e4fcffff 488905ad  ~...)@......H...
 400f40 32200048 85c07537 488b5308 488b33bf  2 .H..u7H.S.H.3.
 400f50 c41b4000 e857fcff ffbf0800 0000e89d  ..@..W..........
 400f60 fcffff48 8b36bfe1 1b4000b8 00000000  ...H.6...@......
 400f70 e83bfcff ffbf0800 0000e881 fcffffe8  .;..............
 400f80 38060000 bf481c40 00e852fc ffffbf88  8....H.@..R.....
 400f90 1c4000e8 48fcffff e8bf0900 004889c7  .@..H........H..
 400fa0 e89b0000 00e8980a 0000bfb8 1c4000e8  .............@..
 400fb0 2cfcffff e8a30900 004889c7 e89b0000  ,........H......
 400fc0 00e87c0a 0000bffb 1b4000e8 10fcffff  ..|......@......
 400fd0 e8870900 004889c7 e8ce0000 00e8600a  .....H........`.
 400fe0 0000bf19 1c4000e8 f4fbffff e86b0900  .....@.......k..
 400ff0 004889c7 e8190200 00e8440a 0000bfe8  .H........D.....
 401000 1c4000e8 d8fbffff e84f0900 004889c7  .@.......O...H..
 401010 e8400200 00e8280a 0000bf28 1c4000e8  .@....(....(.@..
 401020 bcfbffff e8330900 004889c7 e8010300  .....3...H......
 401030 00e80c0a 0000b800 0000005b c3909090  ...........[....
 401040 4883ec08 be101d40 00e84004 000085c0  H......@..@.....
 401050 7405e88d 08000048 83c408c3 41554154  t......H....AUAT
 401060 55534883 ec284889 e6e8ac08 00004889  USH..(H.......H.
 401070 e34c8d6c 240cbd00 00000049 89dc8b43  .L.l$......I...C
 401080 0c390374 05e85a08 00004103 2c244883  .9.t..Z...A.,$H.
 401090 c3044c39 eb75e485 ed7505e8 44080000  ..L9.u...u..D...
 4010a0 4883c428 5b5d415c 415dc348 83ec184c  H..([]A\A].H...L
 4010b0 8d442408 488d4c24 07488d54 240cbe76  .D$.H.L$.H.T$..v
 4010c0 1d4000b8 00000000 e823fbff ff83f802  .@.......#......
 4010d0 7f05e80d 08000083 7c240c07 0f87fc00  ........|$......
 4010e0 00008b44 240cff24 c5901d40 00b86500  ...D$..$...@..e.
 4010f0 0000817c 2408a103 00000f84 e8000000  ...|$...........
 401100 e8df0700 00b86500 0000e9d9 000000b8  ......e.........
 401110 6b000000 817c2408 0c010000 0f84c600  k....|$.........
 401120 0000e8bd 070000b8 6b000000 e9b70000  ........k.......
 401130 00b86900 0000817c 24083c03 00000f84  ..i....|$.<.....
 401140 a4000000 e89b0700 00b86900 0000e995  ..........i.....
 401150 000000b8 76000000 817c2408 27010000  ....v....|$.'...
 401160 0f848200 0000e879 070000b8 76000000  .......y....v...
 401170 eb76b864 00000081 7c240805 03000074  .v.d....|$.....t
 401180 67e85e07 0000b864 000000eb 5bb86400  g.^....d....[.d.
 401190 0000817c 24084001 0000744c e8430700  ...|$.@...tL.C..
 4011a0 00b86400 0000eb40 b8730000 00817c24  ..d....@.s....|$
 4011b0 08c50100 007431e8 28070000 b8730000  .....t1.(....s..
 4011c0 00eb25b8 67000000 817c2408 50030000  ..%.g....|$.P...
 4011d0 7416e80d 070000b8 67000000 eb0ae801  t.......g.......
 4011e0 070000b8 67000000 3a442407 7405e8f1  ....g...:D$.t...
 4011f0 06000048 83c418c3 5389fbb8 01000000  ...H....S.......
 401200 83ff017e 0b8d7fff e8ebffff ff0fafc3  ...~............
 401210 5bc34883 ec18488d 54240cbe 7c1d4000  [.H...H.T$..|.@.
 401220 b8000000 00e8c6f9 ffff83f8 01750783  .............u..
 401230 7c240c00 7f05e8a9 0600008b 7c240ce8  |$..........|$..
 401240 b4ffffff 3db01300 007405e8 94060000  ....=....t......
 401250 4883c418 c3534883 ec204889 fbe80f02  H....SH.. H.....
 401260 000083f8 06744de8 78060000 0f1f4000  .....tM.x.....@.
 401270 eb420fb6 0c03880c 24488b14 2483e20f  .B......$H..$...
 401280 0fb692d0 1d400088 54041048 83c00148  .....@..T..H...H
 401290 83f80675 ddc64424 1600be7f 1d400048  ...u..D$.....@.H
 4012a0 8d7c2410 e8e50100 0085c074 0ee83206  .|$........t..2.
 4012b0 0000eb07 b8000000 00ebb748 83c4205b  ...........H.. [
 4012c0 c34889f8 4c8b4708 48c74708 00000000  .H..L.G.H.G.....
 4012d0 4d85c075 48f3c348 89d1488b 51084885  M..uH..H..H.Q.H.
 4012e0 d2740939 327ff048 89d6eb03 4889d648  .t.92..H....H..H
 4012f0 39ce7406 4c894108 eb134c89 c0eb0e48  9.t.L.A...L....H
 401300 89c24c89 c0eb0648 89c24c89 c0498b48  ..L....H..L..I.H
 401310 08498950 084885c9 74144989 c84885c0  .I.P.H..t.I..H..
 401320 74dd418b 3039307e de4889c1 ebac6690  t.A.090~.H....f.
 401330 f3c353ba 0a000000 be000000 00e89ef9  ..S.............
 401340 ffff4889 c3bf2035 6000e872 ffffffba  ..H... 5`..r....
 401350 08000000 488b4008 83ea0175 f7391874  ....H.@....u.9.t
 401360 05e87e05 00005bc3 4883ec08 4885ff74  ..~...[.H...H..t
 401370 2b8b1739 f27e0d48 8b7f08e8 e8ffffff  +..9.~.H........
 401380 01c0eb1d b8000000 0039f274 14488b7f  .........9.t.H..
 401390 10e8d2ff ffff8d44 0001eb05 b8ffffff  .......D........
 4013a0 ff4883c4 08c353e8 b0050000 ba0a0000  .H....S.........
 4013b0 00be0000 00004889 c7e822f9 ffff4889  ......H..."...H.
 4013c0 c38d40ff 3de80300 007605e8 14050000  ..@.=....v......
 4013d0 89debf40 336000e8 8cffffff 85c07405  ...@3`........t.
 4013e0 e8ff0400 00bf501d 4000e8f1 f7ffffe8  ......P.@.......
 4013f0 4e060000 5bc39090 90909090 90909090  N...[...........
 401400 4883ec08 bfe01d40 00e8d2f7 ffffbf03  H......@........
 401410 000000e8 a8f8ffff bf181f40 00b80000  ...........@....
 401420 0000e889 f7ffff48 8b3da22d 2000e86d  .......H.=.- ..m
 401430 f9ffffbf 01000000 e883f8ff ffbf201f  .............. .
 401440 4000e899 f7ffffbf 10000000 e8aff7ff  @...............
 401450 ff4883ec 084889fe bf281f40 00b80000  .H...H...(.@....
 401460 0000e849 f7ffffbf 08000000 e88ff7ff  ...I............
 401470 ff803f00 74124889 fa4883c2 0189d029  ..?.t.H..H.....)
 401480 f8803a00 75f3f3c3 b8000000 00c34154  ..:.u.........AT
 401490 55534889 fb4889f5 e8d4ffff ff4189c4  USH..H.......A..
 4014a0 4889efe8 c9ffffff ba010000 004139c4  H............A9.
 4014b0 753e0fb6 0384c074 243a4500 74096690  u>.....t$:E.t.f.
 4014c0 eb223a45 00752448 83c30148 83c5010f  .":E.u$H...H....
 4014d0 b60384c0 75ecba00 000000eb 13ba0000  ....u...........
 4014e0 0000eb0c ba010000 00eb05ba 01000000  ................
 4014f0 89d05b5d 415cc341 54555348 83ec1049  ..[]A\.ATUSH...I
 401500 89fc89f5 ba000000 00be0100 0000bf02  ................
 401510 000000e8 18f8ffff 89c385c0 7914bf39  ............y..9
 401520 1f4000e8 b8f6ffff bf080000 00e8cef6  .@..............
 401530 ffff4c89 e7e896f6 ffff4885 c07514bf  ..L.......H..u..
 401540 471f4000 e897f6ff ffbf0800 0000e8ad  G.@.............
 401550 f6ffff48 c7042400 00000048 c7442408  ...H..$....H.D$.
 401560 00000000 66c70424 02004863 5014488d  ....f..$..HcP.H.
 401570 74240448 8b401848 8b38e801 f7ffff89  t$.H.@.H.8......
 401580 ee66c1ce 08668974 2402ba10 00000048  .f...f.t$......H
 401590 89e689df e857f7ff ff85c079 14bf551f  .....W.....y..U.
 4015a0 4000e839 f6ffffbf 08000000 e84ff6ff  @..9.........O..
 4015b0 ff89d848 83c4105b 5d415cc3 534883ec  ...H...[]A\.SH..
 4015c0 40be0014 4000bf02 000000e8 50f7ffff  @...@.......P...
 4015d0 be400000 004889e7 e823f7ff ff85c075  .@...H...#.....u
 4015e0 13488b3d f8232000 bbe83960 004885ff  .H.=.# ...9`.H..
 4015f0 7516eb2d bf631f40 00e8e2f5 ffffbf08  u..-.c.@........
 401600 000000e8 f8f5ffff 4889e6e8 00f6ffff  ........H.......
 401610 85c07421 4883c308 488b7bf8 4885ff75  ..t!H...H.{.H..u
 401620 e7bf701f 4000e8b5 f5ffffbf 08000000  ..p.@...........
 401630 e8cbf5ff ffbe5000 0000bf7e 1f4000e8  ......P....~.@..
 401640 b3feffff 89c7e875 f5ffff48 83c4405b  .......u...H..@[
 401650 c3555348 83ec0848 89fbeb17 e82ff6ff  .USH...H...../..
 401660 ff4883c3 01480fbe ed488b00 f6446801  .H...H...H...Dh.
 401670 20740f0f b62b4084 ed75e1b8 01000000   t...+@..u......
 401680 eb05b800 00000048 83c4085b 5dc35348  .......H...[].SH
 401690 633d522b 20004869 fffa0000 004881c7  c=R+ .Hi.....H..
 4016a0 00426000 488b1545 2b2000be fa000000  .B`.H..E+ ......
 4016b0 e8abf5ff ff4889c3 4885c074 0c4889c7  .....H..H..t.H..
 4016c0 e88cffff ff85c075 c64889d8 5bc34154  .......u.H..[.AT
 4016d0 55534881 ec100100 0089fbbf 00000000  USH.............
 4016e0 e85bf5ff ff4189c4 83f8ff75 14bf9e1f  .[...A.....u....
 4016f0 4000e8e9 f4ffffbf 08000000 e8fff4ff  @...............
 401700 ffbf0000 0000e8b5 f4ffff83 f8ff7514  ..............u.
 401710 bfb21f40 00e8c6f4 ffffbf08 000000e8  ...@............
 401720 dcf4ffff e8e7f5ff ff4889c5 4885c075  .........H..H..u
 401730 14bfc51f 4000e8a5 f4ffffbf 08000000  ....@...........
 401740 e8bbf4ff ff4889c1 ba1b0000 00be0100  .....H..........
 401750 0000bfda 1f4000e8 24f6ffff 4889eebf  .....@..$...H...
 401760 0a000000 e807f5ff ffbf0000 0000e8dd  ................
 401770 f5ffff48 85c07516 c7442410 6e6f626f  ...H..u..D$.nobo
 401780 66c74424 146479c6 44241600 eb0d4889  f.D$.dy.D$....H.
 401790 c6488d7c 2410e8c5 f5ffff85 dbb88d1f  .H.|$...........
 4017a0 400041b9 951f4000 4c0f45c8 8b05362a  @.A...@.L.E...6*
 4017b0 20008904 244c8d44 24108b0d 00222000   ...$L.D$...." .
 4017c0 bac03560 00bef61f 40004889 efb80000  ..5`....@.H.....
 4017d0 0000e8b9 f5ffff83 3d0a2a20 00007e4a  ........=.* ..~J
 4017e0 bb000000 004863d3 4869d2fa 00000048  .....Hc.Hi.....H
 4017f0 81c20042 600083c3 01488914 244189d9  ...B`....H..$A..
 401800 4c8d4424 108b0db5 212000ba c0356000  L.D$....! ...5`.
 401810 be122040 004889ef b8000000 00e86ef5  .. @.H........n.
 401820 ffff391d c0292000 7fbb4889 efe89ef4  ..9..) ...H.....
 401830 ffff41b8 bc2a4000 b92e2040 00ba3320  ..A..*@... @..3 
 401840 4000be4a 204000bf a0556000 b8000000  @..J @...U`.....
 401850 00e84af4 ffffbfa0 556000e8 f0f3ffff  ..J.....U`......
 401860 85c07414 bf532040 00e872f3 ffffbf08  ..t..S @..r.....
 401870 000000e8 88f3ffff 4889efe8 f0f4ffff  ........H.......
 401880 85c07414 bf6d2040 00e852f3 ffffbf08  ..t..m @..R.....
 401890 000000e8 68f3ffff 4489e7e8 a0f3ffff  ....h...D.......
 4018a0 85c07414 bf862040 00e832f3 ffffbf08  ..t... @..2.....
 4018b0 000000e8 48f3ffff 4489e7e8 00f3ffff  ....H...D.......
 4018c0 85c07414 bfa12040 00e812f3 ffffbf08  ..t... @........
 4018d0 000000e8 28f3ffff 4881c410 0100005b  ....(...H......[
 4018e0 5d415cc3 4883ec08 bfb82040 00e8eef2  ]A\.H..... @....
 4018f0 ffffbfc1 204000e8 e4f2ffff bf000000  .... @..........
 401900 00e8c8fd ffffbf18 1e4000e8 d0f2ffff  .........@......
 401910 bf080000 00e8e6f2 ffff4883 ec184889  ..........H...H.
 401920 f2488d4e 04488d46 14488944 2408488d  .H.N.H.F.H.D$.H.
 401930 46104889 04244c8d 4e0c4c8d 4608bed8  F.H..$L.N.L.F...
 401940 204000b8 00000000 e863f3ff ff83f805   @.......c......
 401950 7f05e88d ffffff48 83c418c3 4883ec08  .......H....H...
 401960 b8000000 00e824fd ffff4885 c0756448  ......$...H..udH
 401970 8b054a28 20004839 05732820 00750fbf  ..J( .H9.s( .u..
 401980 ea204000 e857f2ff ffe856ff ffffbf08  . @..W....V.....
 401990 214000e8 a8f3ffff 4885c074 0abf0000  !@......H..t....
 4019a0 0000e859 f2ffff48 8b051228 20004889  ...Y...H...( .H.
 4019b0 053b2820 00b80000 0000e8cf fcffff48  .;( ...........H
 4019c0 85c0750f bfea2040 00e812f2 ffffe811  ..u... @........
 4019d0 ffffff8b 150f2820 004863f2 4869f6fa  ......( .Hc.Hi..
 4019e0 00000048 81c60042 60004889 f7b80000  ...H...B`.H.....
 4019f0 000048c7 c1ffffff fff2ae48 f7d14883  ..H........H..H.
 401a00 e90181f9 f9000000 750fbf13 214000e8  ........u...!@..
 401a10 ccf1ffff e8cbfeff ff83e901 4863c948  ............Hc.H
 401a20 63c24869 c0fa0000 00c68401 00426000  c.Hi.........B`.
 401a30 0083c201 8915ae27 20004889 f04883c4  .......' .H..H..
 401a40 08c34881 ec180100 00bf0100 0000e87b  ..H............{
 401a50 fcffff83 3d8e2720 00067568 488d4c24  ....=.' ..uhH.L$
 401a60 10488d54 240cbe2e 214000bf ee446000  .H.T$...!@...D`.
 401a70 b8000000 00e836f2 ffff83f8 027531be  ......6......u1.
 401a80 34214000 488d7c24 10e800fa ffff85c0  4!@.H.|$........
 401a90 751ebf40 1e4000e8 44f1ffff bf681e40  u..@.@..D....h.@
 401aa0 00e83af1 ffffb800 000000e8 f6f8ffff  ..:.............
 401ab0 bfa01e40 00e826f1 ffffbfd0 1e4000e8  ...@..&......@..
 401ac0 1cf1ffff 4881c418 010000c3 90909090  ....H...........
 401ad0 f3c36666 6666662e 0f1f8400 00000000  ..fffff.........
 401ae0 48896c24 d84c8964 24e0488d 2d3b1520  H.l$.L.d$.H.-;. 
 401af0 004c8d25 34152000 4c896c24 e84c8974  .L.%4. .L.l$.L.t
 401b00 24f04c89 7c24f848 895c24d0 4883ec38  $.L.|$.H.\$.H..8
 401b10 4c29e541 89fd4989 f648c1fd 034989d7  L).A..I..H...I..
 401b20 e863f0ff ff4885ed 741c31db 0f1f4000  .c...H..t.1...@.
 401b30 4c89fa4c 89f64489 ef41ff14 dc4883c3  L..L..D..A...H..
 401b40 014839eb 72ea488b 5c240848 8b6c2410  .H9.r.H.\$.H.l$.
 401b50 4c8b6424 184c8b6c 24204c8b 7424284c  L.d$.L.l$ L.t$(L
 401b60 8b7c2430 4883c438 c3909090 90909090  .|$0H..8........
 401b70 554889e5 53bb3030 60004883 ec08488b  UH..S.00`.H...H.
 401b80 05ab1420 004883f8 ff74140f 1f440000  ... .H...t...D..
 401b90 4883eb08 ffd0488b 034883f8 ff75f148  H.....H..H...u.H
 401ba0 83c4085b 5dc39090                    ...[]...        
Contents of section .fini:
 401ba8 4883ec08 e8bff2ff ff4883c4 08c3      H........H....  
Contents of section .rodata:
 401bc0 01000200 25733a20 4572726f 723a2043  ....%s: Error: C
 401bd0 6f756c64 6e277420 6f70656e 2025730a  ouldn't open %s.
 401be0 00557361 67653a20 2573205b 3c696e70  .Usage: %s [<inp
 401bf0 75745f66 696c653e 5d0a0054 68617427  ut_file>]..That'
 401c00 73206e75 6d626572 20322e20 204b6565  s number 2.  Kee
 401c10 7020676f 696e6721 0048616c 66776179  p going!.Halfway
 401c20 20746865 72652100 476f6f64 20776f72   there!.Good wor
 401c30 6b212020 4f6e2074 6f207468 65206e65  k!  On to the ne
 401c40 78742e2e 2e000000 57656c63 6f6d6520  xt......Welcome 
 401c50 746f206d 79206669 656e6469 7368206c  to my fiendish l
 401c60 6974746c 6520626f 6d622e20 596f7520  ittle bomb. You 
 401c70 68617665 20362070 68617365 73207769  have 6 phases wi
 401c80 74680000 00000000 77686963 6820746f  th......which to
 401c90 20626c6f 7720796f 75727365 6c662075   blow yourself u
 401ca0 702e2048 61766520 61206e69 63652064  p. Have a nice d
 401cb0 61792100 00000000 50686173 65203120  ay!.....Phase 1 
 401cc0 64656675 7365642e 20486f77 2061626f  defused. How abo
 401cd0 75742074 6865206e 65787420 6f6e653f  ut the next one?
 401ce0 00000000 00000000 536f2079 6f752067  ........So you g
 401cf0 6f742074 68617420 6f6e652e 20205472  ot that one.  Tr
 401d00 79207468 6973206f 6e652e00 00000000  y this one......
 401d10 57687920 77617374 65207468 6f736520  Why waste those 
 401d20 63757465 206c6974 746c6520 74726963  cute little tric
 401d30 6b732074 68617420 74686520 41726d79  ks that the Army
 401d40 20746175 67687420 75733f00 00000000   taught us?.....
 401d50 576f7721 20596f75 27766520 64656675  Wow! You've defu
 401d60 73656420 74686520 73656372 65742073  sed the secret s
 401d70 74616765 21002564 20256320 25640074  tage!.%d %c %d.t
 401d80 6974616e 73000000 00000000 00000000  itans...........
 401d90 ed104000 00000000 0f114000 00000000  ..@.......@.....
 401da0 31114000 00000000 53114000 00000000  1.@.....S.@.....
 401db0 72114000 00000000 8d114000 00000000  r.@.......@.....
 401dc0 a8114000 00000000 c3114000 00000000  ..@.......@.....
 401dd0 69737276 65617768 6f62706e 75746667  isrveawhobpnutfg
 401de0 536f2079 6f752074 68696e6b 20796f75  So you think you
 401df0 2063616e 2073746f 70207468 6520626f   can stop the bo
 401e00 6d622077 69746820 6374726c 2d632c20  mb with ctrl-c, 
 401e10 646f2079 6f753f00 596f7572 20696e73  do you?.Your ins
 401e20 74727563 746f7220 68617320 6265656e  tructor has been
 401e30 206e6f74 69666965 642e0000 00000000   notified.......
 401e40 43757273 65732c20 796f7527 76652066  Curses, you've f
 401e50 6f756e64 20746865 20736563 72657420  ound the secret 
 401e60 70686173 65210000 42757420 66696e64  phase!..But find
 401e70 696e6720 69742061 6e642073 6f6c7669  ing it and solvi
 401e80 6e672069 74206172 65207175 69746520  ng it are quite 
 401e90 64696666 6572656e 742e2e2e 00000000  different.......
 401ea0 436f6e67 72617475 6c617469 6f6e7321  Congratulations!
 401eb0 20596f75 27766520 64656675 73656420   You've defused 
 401ec0 74686520 626f6d62 21000000 00000000  the bomb!.......
 401ed0 596f7572 20696e73 74727563 746f7220  Your instructor 
 401ee0 68617320 6265656e 206e6f74 69666965  has been notifie
 401ef0 6420616e 64207769 6c6c2076 65726966  d and will verif
 401f00 7920796f 75722073 6f6c7574 696f6e2e  y your solution.
 401f10 00000000 00000000 57656c6c 2e2e2e00  ........Well....
 401f20 4f4b2e20 3a2d2900 496e7661 6c696420  OK. :-).Invalid 
 401f30 70686173 6525730a 00426164 20686f73  phase%s..Bad hos
 401f40 74202831 292e0042 61642068 6f737420  t (1)..Bad host 
 401f50 2832292e 00426164 20686f73 74202833  (2)..Bad host (3
 401f60 292e0042 61642068 6f737420 28342900  )..Bad host (4).
 401f70 42616420 686f7374 20283529 2e007777  Bad host (5)..ww
 401f80 772e676f 6f676c65 2e636f6d 00646566  w.google.com.def
 401f90 75736564 00657870 6c6f6465 64004552  used.exploded.ER
 401fa0 524f523a 20647570 28302920 6572726f  ROR: dup(0) erro
 401fb0 72004552 524f523a 20636c6f 73652065  r.ERROR: close e
 401fc0 72726f72 00455252 4f523a20 746d7066  rror.ERROR: tmpf
 401fd0 696c6520 6572726f 72005375 626a6563  ile error.Subjec
 401fe0 743a2042 6f6d6220 6e6f7469 66696361  t: Bomb notifica
 401ff0 74696f6e 0a00626f 6d622d68 65616465  tion..bomb-heade
 402000 723a2573 3a25643a 25733a25 733a2564  r:%s:%d:%s:%s:%d
 402010 0a00626f 6d622d73 7472696e 673a2573  ..bomb-string:%s
 402020 3a25643a 25733a25 643a2573 0a00626f  :%d:%s:%d:%s..bo
 402030 6d62002f 7573722f 7362696e 2f73656e  mb./usr/sbin/sen
 402040 646d6169 6c202d62 6d002573 20257340  dmail -bm.%s %s@
 402050 25730045 52524f52 3a206e6f 74696669  %s.ERROR: notifi
 402060 63617469 6f6e2065 72726f72 00455252  cation error.ERR
 402070 4f523a20 66636c6f 73652874 6d702920  OR: fclose(tmp) 
 402080 6572726f 72004552 524f523a 20647570  error.ERROR: dup
 402090 28746d70 73746469 6e292065 72726f72  (tmpstdin) error
 4020a0 00455252 4f523a20 636c6f73 6528746d  .ERROR: close(tm
 4020b0 70737464 696e2900 0a424f4f 4d212121  pstdin)..BOOM!!!
 4020c0 00546865 20626f6d 62206861 7320626c  .The bomb has bl
 4020d0 6f776e20 75702e00 25642025 64202564  own up..%d %d %d
 4020e0 20256420 25642025 64004572 726f723a   %d %d %d.Error:
 4020f0 20507265 6d617475 72652045 4f46206f   Premature EOF o
 402100 6e207374 64696e00 47524144 455f424f  n stdin.GRADE_BO
 402110 4d420045 72726f72 3a20496e 70757420  MB.Error: Input 
 402120 6c696e65 20746f6f 206c6f6e 67002564  line too long.%d
 402130 20257300 44616e6e 795f4f63 65616e00   %s.Danny_Ocean.
 402140 64656c6c 31342e65 6563732e 74756674  dell14.eecs.tuft
 402150 732e6564 75006465 6c6c3134 0064656c  s.edu.dell14.del
 402160 6c32342e 65656373 2e747566 74732e65  l24.eecs.tufts.e
 402170 64750064 656c6c32 34006465 6c6c3235  du.dell24.dell25
 402180 2e656563 732e7475 6674732e 65647500  .eecs.tufts.edu.
 402190 64656c6c 32350064 656c6c32 362e6565  dell25.dell26.ee
 4021a0 63732e74 75667473 2e656475 0064656c  cs.tufts.edu.del
 4021b0 6c323600 64656c6c 32372e65 6563732e  l26.dell27.eecs.
 4021c0 74756674 732e6564 75006465 6c6c3237  tufts.edu.dell27
 4021d0 006c6162 31313661 2e656563 732e7475  .lab116a.eecs.tu
 4021e0 6674732e 65647500 6c616231 31366100  fts.edu.lab116a.
 4021f0 6c616231 3136622e 65656373 2e747566  lab116b.eecs.tuf
 402200 74732e65 6475006c 61623131 3662006c  ts.edu.lab116b.l
 402210 61623131 36632e65 6563732e 74756674  ab116c.eecs.tuft
 402220 732e6564 75006c61 62313136 63006c61  s.edu.lab116c.la
 402230 62313136 642e6565 63732e74 75667473  b116d.eecs.tufts
 402240 2e656475 006c6162 31313664 006c6162  .edu.lab116d.lab
 402250 31313665 2e656563 732e7475 6674732e  116e.eecs.tufts.
 402260 65647500 6c616231 31366500 6c616231  edu.lab116e.lab1
 402270 3136662e 65656373 2e747566 74732e65  16f.eecs.tufts.e
 402280 6475006c 61623131 3666006c 61623131  du.lab116f.lab11
 402290 36672e65 6563732e 74756674 732e6564  6g.eecs.tufts.ed
 4022a0 75006c61 62313136 67006c61 62313136  u.lab116g.lab116
 4022b0 682e6565 63732e74 75667473 2e656475  h.eecs.tufts.edu
 4022c0 006c6162 31313668 006c6162 31313669  .lab116h.lab116i
 4022d0 2e656563 732e7475 6674732e 65647500  .eecs.tufts.edu.
 4022e0 6c616231 31366900 6c616231 31366a2e  lab116i.lab116j.
 4022f0 65656373 2e747566 74732e65 6475006c  eecs.tufts.edu.l
 402300 61623131 366a006c 61623131 366b2e65  ab116j.lab116k.e
 402310 6563732e 74756674 732e6564 75006c61  ecs.tufts.edu.la
 402320 62313136 6b006c61 62313136 6c2e6565  b116k.lab116l.ee
 402330 63732e74 75667473 2e656475 006c6162  cs.tufts.edu.lab
 402340 3131366c 006c6162 3131366d 2e656563  116l.lab116m.eec
 402350 732e7475 6674732e 65647500 6c616231  s.tufts.edu.lab1
 402360 31366d00 6c616231 31366e2e 65656373  16m.lab116n.eecs
 402370 2e747566 74732e65 6475006c 61623131  .tufts.edu.lab11
 402380 366e006c 61623131 366f2e65 6563732e  6n.lab116o.eecs.
 402390 74756674 732e6564 75006c61 62313136  tufts.edu.lab116
 4023a0 6f006c61 62313136 702e6565 63732e74  o.lab116p.eecs.t
 4023b0 75667473 2e656475 006c6162 31313670  ufts.edu.lab116p
 4023c0 006c6162 31313671 2e656563 732e7475  .lab116q.eecs.tu
 4023d0 6674732e 65647500 6c616231 31367100  fts.edu.lab116q.
 4023e0 6c616231 3136722e 65656373 2e747566  lab116r.eecs.tuf
 4023f0 74732e65 6475006c 61623131 3672006c  ts.edu.lab116r.l
 402400 61623131 36732e65 6563732e 74756674  ab116s.eecs.tuft
 402410 732e6564 75006c61 62313136 73006c61  s.edu.lab116s.la
 402420 62313136 742e6565 63732e74 75667473  b116t.eecs.tufts
 402430 2e656475 006c6162 31313674 006c6162  .edu.lab116t.lab
 402440 31313675 2e656563 732e7475 6674732e  116u.eecs.tufts.
 402450 65647500 6c616231 31367500 6c616231  edu.lab116u.lab1
 402460 3136762e 65656373 2e747566 74732e65  16v.eecs.tufts.e
 402470 6475006c 61623131 3676006c 61623131  du.lab116v.lab11
 402480 36772e65 6563732e 74756674 732e6564  6w.eecs.tufts.ed
 402490 75006c61 62313136 77006c61 62313136  u.lab116w.lab116
 4024a0 782e6565 63732e74 75667473 2e656475  x.eecs.tufts.edu
 4024b0 006c6162 31313678 006c6162 31313861  .lab116x.lab118a
 4024c0 2e656563 732e7475 6674732e 65647500  .eecs.tufts.edu.
 4024d0 6c616231 31386100 6c616231 3138622e  lab118a.lab118b.
 4024e0 65656373 2e747566 74732e65 6475006c  eecs.tufts.edu.l
 4024f0 61623131 3862006c 61623131 38632e65  ab118b.lab118c.e
 402500 6563732e 74756674 732e6564 75006c61  ecs.tufts.edu.la
 402510 62313138 63006c61 62313138 642e6565  b118c.lab118d.ee
 402520 63732e74 75667473 2e656475 006c6162  cs.tufts.edu.lab
 402530 31313864 006c6162 31313865 2e656563  118d.lab118e.eec
 402540 732e7475 6674732e 65647500 6c616231  s.tufts.edu.lab1
 402550 31386500 6c616231 3138662e 65656373  18e.lab118f.eecs
 402560 2e747566 74732e65 6475006c 61623131  .tufts.edu.lab11
 402570 3866006c 61623131 38672e65 6563732e  8f.lab118g.eecs.
 402580 74756674 732e6564 75006c61 62313138  tufts.edu.lab118
 402590 67006c61 62313138 682e6565 63732e74  g.lab118h.eecs.t
 4025a0 75667473 2e656475 006c6162 31313868  ufts.edu.lab118h
 4025b0 006c6162 31313869 2e656563 732e7475  .lab118i.eecs.tu
 4025c0 6674732e 65647500 6c616231 31386900  fts.edu.lab118i.
 4025d0 6c616231 31386a2e 65656373 2e747566  lab118j.eecs.tuf
 4025e0 74732e65 6475006c 61623131 386a006c  ts.edu.lab118j.l
 4025f0 61623131 386b2e65 6563732e 74756674  ab118k.eecs.tuft
 402600 732e6564 75006c61 62313138 6b006c61  s.edu.lab118k.la
 402610 62313138 6c2e6565 63732e74 75667473  b118l.eecs.tufts
 402620 2e656475 006c6162 3131386c 006c6162  .edu.lab118l.lab
 402630 3131386d 2e656563 732e7475 6674732e  118m.eecs.tufts.
 402640 65647500 6c616231 31386d00 6c616231  edu.lab118m.lab1
 402650 31386e2e 65656373 2e747566 74732e65  18n.eecs.tufts.e
 402660 6475006c 61623131 386e006c 61623131  du.lab118n.lab11
 402670 386f2e65 6563732e 74756674 732e6564  8o.eecs.tufts.ed
 402680 75006c61 62313138 6f006c61 62313138  u.lab118o.lab118
 402690 702e6565 63732e74 75667473 2e656475  p.eecs.tufts.edu
 4026a0 006c6162 31313870 006c6162 31313871  .lab118p.lab118q
 4026b0 2e656563 732e7475 6674732e 65647500  .eecs.tufts.edu.
 4026c0 6c616231 31387100 6c616231 3138722e  lab118q.lab118r.
 4026d0 65656373 2e747566 74732e65 6475006c  eecs.tufts.edu.l
 4026e0 61623131 3872006c 61623131 38732e65  ab118r.lab118s.e
 4026f0 6563732e 74756674 732e6564 75006c61  ecs.tufts.edu.la
 402700 62313138 73006c61 62313138 742e6565  b118s.lab118t.ee
 402710 63732e74 75667473 2e656475 006c6162  cs.tufts.edu.lab
 402720 31313874 006c6162 31313875 2e656563  118t.lab118u.eec
 402730 732e7475 6674732e 65647500 6c616231  s.tufts.edu.lab1
 402740 31387500 6c616231 3138762e 65656373  18u.lab118v.eecs
 402750 2e747566 74732e65 6475006c 61623131  .tufts.edu.lab11
 402760 3876006c 61623131 38772e65 6563732e  8v.lab118w.eecs.
 402770 74756674 732e6564 75006c61 62313138  tufts.edu.lab118
 402780 77006c61 62313138 782e6565 63732e74  w.lab118x.eecs.t
 402790 75667473 2e656475 006c6162 31313878  ufts.edu.lab118x
 4027a0 006c6162 31323061 2e656563 732e7475  .lab120a.eecs.tu
 4027b0 6674732e 65647500 6c616231 32306100  fts.edu.lab120a.
 4027c0 6c616231 3230622e 65656373 2e747566  lab120b.eecs.tuf
 4027d0 74732e65 6475006c 61623132 3062006c  ts.edu.lab120b.l
 4027e0 61623132 30632e65 6563732e 74756674  ab120c.eecs.tuft
 4027f0 732e6564 75006c61 62313230 63006c61  s.edu.lab120c.la
 402800 62313230 642e6565 63732e74 75667473  b120d.eecs.tufts
 402810 2e656475 006c6162 31323064 006c6162  .edu.lab120d.lab
 402820 31323065 2e656563 732e7475 6674732e  120e.eecs.tufts.
 402830 65647500 6c616231 32306500 6c616231  edu.lab120e.lab1
 402840 3230662e 65656373 2e747566 74732e65  20f.eecs.tufts.e
 402850 6475006c 61623132 3066006c 61623132  du.lab120f.lab12
 402860 30672e65 6563732e 74756674 732e6564  0g.eecs.tufts.ed
 402870 75006c61 62313230 67006c61 62313230  u.lab120g.lab120
 402880 682e6565 63732e74 75667473 2e656475  h.eecs.tufts.edu
 402890 006c6162 31323068 006c6162 31323069  .lab120h.lab120i
 4028a0 2e656563 732e7475 6674732e 65647500  .eecs.tufts.edu.
 4028b0 6c616231 32306900 6c616231 32306a2e  lab120i.lab120j.
 4028c0 65656373 2e747566 74732e65 6475006c  eecs.tufts.edu.l
 4028d0 61623132 306a006c 61623132 306b2e65  ab120j.lab120k.e
 4028e0 6563732e 74756674 732e6564 75006c61  ecs.tufts.edu.la
 4028f0 62313230 6b006c61 62313230 6c2e6565  b120k.lab120l.ee
 402900 63732e74 75667473 2e656475 006c6162  cs.tufts.edu.lab
 402910 3132306c 006c6162 3132306d 2e656563  120l.lab120m.eec
 402920 732e7475 6674732e 65647500 6c616231  s.tufts.edu.lab1
 402930 32306d00 6c616231 32306e2e 65656373  20m.lab120n.eecs
 402940 2e747566 74732e65 6475006c 61623132  .tufts.edu.lab12
 402950 306e006c 61623132 306f2e65 6563732e  0n.lab120o.eecs.
 402960 74756674 732e6564 75006c61 62313230  tufts.edu.lab120
 402970 6f006c61 62313230 702e6565 63732e74  o.lab120p.eecs.t
 402980 75667473 2e656475 006c6162 31323070  ufts.edu.lab120p
 402990 006c6162 31323071 2e656563 732e7475  .lab120q.eecs.tu
 4029a0 6674732e 65647500 6c616231 32307100  fts.edu.lab120q.
 4029b0 6c616231 3230722e 65656373 2e747566  lab120r.eecs.tuf
 4029c0 74732e65 6475006c 61623132 3072006c  ts.edu.lab120r.l
 4029d0 61623132 30732e65 6563732e 74756674  ab120s.eecs.tuft
 4029e0 732e6564 75006c61 62313230 73006c61  s.edu.lab120s.la
 4029f0 62313230 742e6565 63732e74 75667473  b120t.eecs.tufts
 402a00 2e656475 006c6162 31323074 006c6162  .edu.lab120t.lab
 402a10 31323075 2e656563 732e7475 6674732e  120u.eecs.tufts.
 402a20 65647500 6c616231 32307500 6c616231  edu.lab120u.lab1
 402a30 3230762e 65656373 2e747566 74732e65  20v.eecs.tufts.e
 402a40 6475006c 61623132 30760073 756e6669  du.lab120v.sunfi
 402a50 72653631 2e656563 732e7475 6674732e  re61.eecs.tufts.
 402a60 65647500 73756e66 69726536 31007375  edu.sunfire61.su
 402a70 6e666972 6536322e 65656373 2e747566  nfire62.eecs.tuf
 402a80 74732e65 64750073 756e6669 72653632  ts.edu.sunfire62
 402a90 0073756e 66697265 36332e65 6563732e  .sunfire63.eecs.
 402aa0 74756674 732e6564 75007375 6e666972  tufts.edu.sunfir
 402ab0 65363300 766d2d68 7730302e 65656373  e63.vm-hw00.eecs
 402ac0 2e747566 74732e65 64750076 6d2d6877  .tufts.edu.vm-hw
 402ad0 30300076 6d2d6877 30312e65 6563732e  00.vm-hw01.eecs.
 402ae0 74756674 732e6564 7500766d 2d687730  tufts.edu.vm-hw0
 402af0 3100766d 2d687730 322e6565 63732e74  1.vm-hw02.eecs.t
 402b00 75667473 2e656475 00766d2d 68773032  ufts.edu.vm-hw02
 402b10 00766d2d 68773033 2e656563 732e7475  .vm-hw03.eecs.tu
 402b20 6674732e 65647500 766d2d68 77303300  fts.edu.vm-hw03.
 402b30 766d2d68 7730342e 65656373 2e747566  vm-hw04.eecs.tuf
 402b40 74732e65 64750076 6d2d6877 30340076  ts.edu.vm-hw04.v
 402b50 6d2d6877 30352e65 6563732e 74756674  m-hw05.eecs.tuft
 402b60 732e6564 7500766d 2d687730 3500766d  s.edu.vm-hw05.vm
 402b70 2d687730 362e6565 63732e74 75667473  -hw06.eecs.tufts
 402b80 2e656475 00766d2d 68773036 00766d2d  .edu.vm-hw06.vm-
 402b90 68773037 2e656563 732e7475 6674732e  hw07.eecs.tufts.
 402ba0 65647500 766d2d68 77303700 766d2d68  edu.vm-hw07.vm-h
 402bb0 7730382e 65656373 2e747566 74732e65  w08.eecs.tufts.e
 402bc0 64750076 6d2d6877 30380076 6d2d6877  du.vm-hw08.vm-hw
 402bd0 30392e65 6563732e 74756674 732e6564  09.eecs.tufts.ed
 402be0 7500766d 2d687730 3900               u.vm-hw09.      
Contents of section .eh_frame_hdr:
 402bec 011b033b d8000000 1a000000 24e3ffff  ...;........$...
 402bfc f4000000 54e4ffff 14010000 70e4ffff  ....T.......p...
 402c0c 2c010000 bfe4ffff 64010000 0ce6ffff  ,.......d.......
 402c1c 84010000 26e6ffff a4010000 69e6ffff  ....&.......i...
 402c2c bc010000 d5e6ffff dc010000 46e7ffff  ............F...
 402c3c f4010000 7ce7ffff 14020000 bae7ffff  ....|...........
 402c4c 2c020000 14e8ffff 4c020000 65e8ffff  ,.......L...e...
 402c5c 64020000 85e8ffff 7c020000 a2e8ffff  d.......|.......
 402c6c 94020000 0be9ffff c4020000 d0e9ffff  ................
 402c7c f4020000 65eaffff 14030000 a2eaffff  ....e...........
 402c8c 3c030000 e2eaffff 5c030000 f8ecffff  <.......\.......
 402c9c 94030000 2eedffff ac030000 70edffff  ............p...
 402cac c4030000 56eeffff dc030000 e4eeffff  ....V...........
 402cbc fc030000 f4eeffff 14040000           ............    
Contents of section .eh_frame:
 402cc8 14000000 00000000 017a5200 01781001  .........zR..x..
 402cd8 1b0c0708 90010000 1c000000 1c000000  ................
 402ce8 28e2ffff 2d010000 00410e10 8302032b  (...-....A.....+
 402cf8 010e0800 00000000 14000000 3c000000  ............<...
 402d08 38e3ffff 1c000000 00440e10 570e0800  8........D..W...
 402d18 34000000 54000000 3ce3ffff 4f000000  4...T...<...O...
 402d28 00420e10 8d02420e 188c0341 0e208604  .B....B....A. ..
 402d38 410e2883 05440e50 7e0e2841 0e20410e  A.(..D.P~.(A. A.
 402d48 18420e10 420e0800 1c000000 8c000000  .B..B...........
 402d58 53e3ffff 4d010000 00440e20 0348010e  S...M....D. .H..
 402d68 08000000 00000000 1c000000 ac000000  ................
 402d78 80e4ffff 1a000000 00410e10 8302580e  .........A....X.
 402d88 08000000 00000000 14000000 cc000000  ................
 402d98 7ae4ffff 43000000 00440e20 7e0e0800  z...C....D. ~...
 402da8 1c000000 e4000000 a5e4ffff 6c000000  ............l...
 402db8 00410e10 8302440e 3002650e 10410e08  .A....D.0.e..A..
 402dc8 14000000 04010000 f1e4ffff 71000000  ............q...
 402dd8 00000000 00000000 1c000000 1c010000  ................
 402de8 4ae5ffff 36000000 00410e10 8302740e  J...6....A....t.
 402df8 08000000 00000000 14000000 3c010000  ............<...
 402e08 60e5ffff 3e000000 00440e10 790e0800  `...>....D..y...
 402e18 1c000000 54010000 86e5ffff 50000000  ....T.......P...
 402e28 00410e10 8302024e 0e080000 00000000  .A.....N........
 402e38 14000000 74010000 c0e5ffff 51000000  ....t.......Q...
 402e48 00440e10 00000000 14000000 8c010000  .D..............
 402e58 f9e5ffff 20000000 00440e10 00000000  .... ....D......
 402e68 14000000 a4010000 01e6ffff 1d000000  ................
 402e78 00000000 00000000 2c000000 bc010000  ........,.......
 402e88 06e6ffff 69000000 00420e10 8c02410e  ....i....B....A.
 402e98 18860341 0e208304 02610e18 410e1042  ...A. ...a..A..B
 402ea8 0e080000 00000000 2c000000 ec010000  ........,.......
 402eb8 3fe6ffff c5000000 00420e10 8c02410e  ?........B....A.
 402ec8 18860341 0e208304 440e3002 b80e2041  ...A. ..D.0... A
 402ed8 0e18410e 10420e08 1c000000 1c020000  ..A..B..........
 402ee8 d4e6ffff 95000000 00410e10 8302440e  .........A....D.
 402ef8 50028e0e 10410e08 24000000 3c020000  P....A..$...<...
 402f08 49e7ffff 3d000000 00410e10 8602410e  I...=....A....A.
 402f18 18830344 0e20740e 18410e10 410e0800  ...D. t..A..A...
 402f28 1c000000 64020000 5ee7ffff 40000000  ....d...^...@...
 402f38 00410e10 83027e0e 08000000 00000000  .A....~.........
 402f48 34000000 84020000 7ee7ffff 16020000  4.......~.......
 402f58 00420e10 8c02410e 18860341 0e208304  .B....A....A. ..
 402f68 470eb002 0306020e 20410e18 410e1042  G....... A..A..B
 402f78 0e080000 00000000 14000000 bc020000  ................
 402f88 5ce9ffff 36000000 00440e10 00000000  \...6....D......
 402f98 14000000 d4020000 7ae9ffff 42000000  ........z...B...
 402fa8 00440e20 7d0e0800 14000000 ec020000  .D. }...........
 402fb8 a4e9ffff e6000000 00440e10 02e10e08  .........D......
 402fc8 1c000000 04030000 72eaffff 8a000000  ........r.......
 402fd8 00470ea0 0202820e 08000000 00000000  .G..............
 402fe8 14000000 24030000 e0eaffff 02000000  ....$...........
 402ff8 00000000 00000000 24000000 3c030000  ........$...<...
 403008 d8eaffff 89000000 00518c05 86065f0e  .........Q...._.
 403018 4083078f 028e038d 0402580e 08000000  @.........X.....
 403028 00000000                             ....            
Contents of section .ctors:
 603030 ffffffff ffffffff 00000000 00000000  ................
Contents of section .dtors:
 603040 ffffffff ffffffff 00000000 00000000  ................
Contents of section .jcr:
 603050 00000000 00000000                    ........        
Contents of section .dynamic:
 603058 01000000 00000000 10000000 00000000  ................
 603068 0c000000 00000000 880b4000 00000000  ..........@.....
 603078 0d000000 00000000 a81b4000 00000000  ..........@.....
 603088 04000000 00000000 40024000 00000000  ........@.@.....
 603098 05000000 00000000 80064000 00000000  ..........@.....
 6030a8 06000000 00000000 20034000 00000000  ........ .@.....
 6030b8 0a000000 00000000 36010000 00000000  ........6.......
 6030c8 0b000000 00000000 18000000 00000000  ................
 6030d8 15000000 00000000 00000000 00000000  ................
 6030e8 03000000 00000000 f0316000 00000000  .........1`.....
 6030f8 02000000 00000000 00030000 00000000  ................
 603108 14000000 00000000 07000000 00000000  ................
 603118 17000000 00000000 88084000 00000000  ..........@.....
 603128 07000000 00000000 40084000 00000000  ........@.@.....
 603138 08000000 00000000 48000000 00000000  ........H.......
 603148 09000000 00000000 18000000 00000000  ................
 603158 feffff6f 00000000 00084000 00000000  ...o......@.....
 603168 ffffff6f 00000000 01000000 00000000  ...o............
 603178 f0ffff6f 00000000 b6074000 00000000  ...o......@.....
 603188 00000000 00000000 00000000 00000000  ................
 603198 00000000 00000000 00000000 00000000  ................
 6031a8 00000000 00000000 00000000 00000000  ................
 6031b8 00000000 00000000 00000000 00000000  ................
 6031c8 00000000 00000000 00000000 00000000  ................
 6031d8 00000000 00000000 00000000 00000000  ................
Contents of section .got:
 6031e8 00000000 00000000                    ........        
Contents of section .got.plt:
 6031f0 58306000 00000000 00000000 00000000  X0`.............
 603200 00000000 00000000 b60b4000 00000000  ..........@.....
 603210 c60b4000 00000000 d60b4000 00000000  ..@.......@.....
 603220 e60b4000 00000000 f60b4000 00000000  ..@.......@.....
 603230 060c4000 00000000 160c4000 00000000  ..@.......@.....
 603240 260c4000 00000000 360c4000 00000000  &.@.....6.@.....
 603250 460c4000 00000000 560c4000 00000000  F.@.....V.@.....
 603260 660c4000 00000000 760c4000 00000000  f.@.....v.@.....
 603270 860c4000 00000000 960c4000 00000000  ..@.......@.....
 603280 a60c4000 00000000 b60c4000 00000000  ..@.......@.....
 603290 c60c4000 00000000 d60c4000 00000000  ..@.......@.....
 6032a0 e60c4000 00000000 f60c4000 00000000  ..@.......@.....
 6032b0 060d4000 00000000 160d4000 00000000  ..@.......@.....
 6032c0 260d4000 00000000 360d4000 00000000  &.@.....6.@.....
 6032d0 460d4000 00000000 560d4000 00000000  F.@.....V.@.....
 6032e0 660d4000 00000000 760d4000 00000000  f.@.....v.@.....
 6032f0 860d4000 00000000 960d4000 00000000  ..@.......@.....
 603300 a60d4000 00000000                    ..@.....        
Contents of section .data:
 603320 00000000 00000000 00000000 00000000  ................
 603330 00000000 00000000 00000000 00000000  ................
 603340 24000000 00000000 60336000 00000000  $.......`3`.....
 603350 80336000 00000000 00000000 00000000  .3`.............
 603360 08000000 00000000 e0336000 00000000  .........3`.....
 603370 a0336000 00000000 00000000 00000000  .3`.............
 603380 32000000 00000000 c0336000 00000000  2........3`.....
 603390 00346000 00000000 00000000 00000000  .4`.............
 6033a0 16000000 00000000 c0346000 00000000  .........4`.....
 6033b0 80346000 00000000 00000000 00000000  .4`.............
 6033c0 2d000000 00000000 20346000 00000000  -....... 4`.....
 6033d0 e0346000 00000000 00000000 00000000  .4`.............
 6033e0 06000000 00000000 40346000 00000000  ........@4`.....
 6033f0 a0346000 00000000 00000000 00000000  .4`.............
 603400 6b000000 00000000 60346000 00000000  k.......`4`.....
 603410 00356000 00000000 00000000 00000000  .5`.............
 603420 28000000 00000000 00000000 00000000  (...............
 603430 00000000 00000000 00000000 00000000  ................
 603440 01000000 00000000 00000000 00000000  ................
 603450 00000000 00000000 00000000 00000000  ................
 603460 63000000 00000000 00000000 00000000  c...............
 603470 00000000 00000000 00000000 00000000  ................
 603480 23000000 00000000 00000000 00000000  #...............
 603490 00000000 00000000 00000000 00000000  ................
 6034a0 07000000 00000000 00000000 00000000  ................
 6034b0 00000000 00000000 00000000 00000000  ................
 6034c0 14000000 00000000 00000000 00000000  ................
 6034d0 00000000 00000000 00000000 00000000  ................
 6034e0 2f000000 00000000 00000000 00000000  /...............
 6034f0 00000000 00000000 00000000 00000000  ................
 603500 e9030000 00000000 00000000 00000000  ................
 603510 00000000 00000000 00000000 00000000  ................
 603520 51010000 01000000 30356000 00000000  Q.......05`.....
 603530 5d020000 02000000 40356000 00000000  ].......@5`.....
 603540 e6020000 03000000 50356000 00000000  ........P5`.....
 603550 02030000 04000000 60356000 00000000  ........`5`.....
 603560 e8030000 05000000 70356000 00000000  ........p5`.....
 603570 31020000 06000000 80356000 00000000  1........5`.....
 603580 b6020000 07000000 90356000 00000000  .........5`.....
 603590 aa020000 08000000 a0356000 00000000  .........5`.....
 6035a0 54010000 09000000 00000000 00000000  T...............
 6035b0 00000000 00000000 00000000 00000000  ................
 6035c0 636f6d70 34306661 6c6c3138 00000000  comp40fall18....
 6035d0 00000000 00000000 00000000 00000000  ................
 6035e0 00000000 00000000 00000000 00000000  ................
 6035f0 00000000 00000000 00000000 00000000  ................
 603600 00000000 00000000 00000000 00000000  ................
 603610 00000000 00000000 00000000 00000000  ................
 603620 00000000 00000000 00000000 00000000  ................
 603630 00000000 00000000 00000000 00000000  ................
 603640 00000000 00000000 00000000 00000000  ................
 603650 00000000 00000000 00000000 00000000  ................
 603660 00000000 00000000 00000000 00000000  ................
 603670 00000000 00000000 00000000 00000000  ................
 603680 00000000 00000000 00000000 00000000  ................
 603690 00000000 00000000 00000000 00000000  ................
 6036a0 00000000 00000000 00000000 00000000  ................
 6036b0 00000000 00000000 00000000 00000000  ................
 6036c0 00000000 00000000 00000000 00000000  ................
 6036d0 00000000 00000000 00000000 00000000  ................
 6036e0 00000000 00000000 00000000 00000000  ................
 6036f0 00000000 00000000 00000000 00000000  ................
 603700 00000000 00000000 00000000 00000000  ................
 603710 00000000 00000000 00000000 00000000  ................
 603720 00000000 00000000 00000000 00000000  ................
 603730 00000000 00000000 00000000 00000000  ................
 603740 00000000 00000000 00000000 00000000  ................
 603750 00000000 00000000 00000000 00000000  ................
 603760 00000000 00000000 00000000 00000000  ................
 603770 00000000 00000000 00000000 00000000  ................
 603780 00000000 00000000 00000000 00000000  ................
 603790 00000000 00000000 00000000 00000000  ................
 6037a0 00000000 00000000 00000000 00000000  ................
 6037b0 00000000 00000000 00000000 00000000  ................
 6037c0 00000000 00000000 00000000 00000000  ................
 6037d0 00000000 00000000 00000000 00000000  ................
 6037e0 00000000 00000000 00000000 00000000  ................
 6037f0 00000000 00000000 00000000 00000000  ................
 603800 00000000 00000000 00000000 00000000  ................
 603810 00000000 00000000 00000000 00000000  ................
 603820 00000000 00000000 00000000 00000000  ................
 603830 00000000 00000000 00000000 00000000  ................
 603840 00000000 00000000 00000000 00000000  ................
 603850 00000000 00000000 00000000 00000000  ................
 603860 00000000 00000000 00000000 00000000  ................
 603870 00000000 00000000 00000000 00000000  ................
 603880 00000000 00000000 00000000 00000000  ................
 603890 00000000 00000000 00000000 00000000  ................
 6038a0 00000000 00000000 00000000 00000000  ................
 6038b0 00000000 00000000 00000000 00000000  ................
 6038c0 00000000 00000000 00000000 00000000  ................
 6038d0 00000000 00000000 00000000 00000000  ................
 6038e0 00000000 00000000 00000000 00000000  ................
 6038f0 00000000 00000000 00000000 00000000  ................
 603900 00000000 00000000 00000000 00000000  ................
 603910 00000000 00000000 00000000 00000000  ................
 603920 00000000 00000000 00000000 00000000  ................
 603930 00000000 00000000 00000000 00000000  ................
 603940 00000000 00000000 00000000 00000000  ................
 603950 00000000 00000000 00000000 00000000  ................
 603960 00000000 00000000 00000000 00000000  ................
 603970 00000000 00000000 00000000 00000000  ................
 603980 00000000 00000000 00000000 00000000  ................
 603990 00000000 00000000 00000000 00000000  ................
 6039a0 00000000 00000000 00000000 00000000  ................
 6039b0 00000000 00000000 00000000 00000000  ................
 6039c0 1a000000 00000000 00000000 00000000  ................
 6039d0 00000000 00000000 00000000 00000000  ................
 6039e0 40214000 00000000 56214000 00000000  @!@.....V!@.....
 6039f0 5d214000 00000000 73214000 00000000  ]!@.....s!@.....
 603a00 7a214000 00000000 90214000 00000000  z!@......!@.....
 603a10 97214000 00000000 ad214000 00000000  .!@......!@.....
 603a20 b4214000 00000000 ca214000 00000000  .!@......!@.....
 603a30 d1214000 00000000 e8214000 00000000  .!@......!@.....
 603a40 f0214000 00000000 07224000 00000000  .!@......"@.....
 603a50 0f224000 00000000 26224000 00000000  ."@.....&"@.....
 603a60 2e224000 00000000 45224000 00000000  ."@.....E"@.....
 603a70 4d224000 00000000 64224000 00000000  M"@.....d"@.....
 603a80 6c224000 00000000 83224000 00000000  l"@......"@.....
 603a90 8b224000 00000000 a2224000 00000000  ."@......"@.....
 603aa0 aa224000 00000000 c1224000 00000000  ."@......"@.....
 603ab0 c9224000 00000000 e0224000 00000000  ."@......"@.....
 603ac0 e8224000 00000000 ff224000 00000000  ."@......"@.....
 603ad0 07234000 00000000 1e234000 00000000  .#@......#@.....
 603ae0 26234000 00000000 3d234000 00000000  &#@.....=#@.....
 603af0 45234000 00000000 5c234000 00000000  E#@.....\#@.....
 603b00 64234000 00000000 7b234000 00000000  d#@.....{#@.....
 603b10 83234000 00000000 9a234000 00000000  .#@......#@.....
 603b20 a2234000 00000000 b9234000 00000000  .#@......#@.....
 603b30 c1234000 00000000 d8234000 00000000  .#@......#@.....
 603b40 e0234000 00000000 f7234000 00000000  .#@......#@.....
 603b50 ff234000 00000000 16244000 00000000  .#@......$@.....
 603b60 1e244000 00000000 35244000 00000000  .$@.....5$@.....
 603b70 3d244000 00000000 54244000 00000000  =$@.....T$@.....
 603b80 5c244000 00000000 73244000 00000000  \$@.....s$@.....
 603b90 7b244000 00000000 92244000 00000000  {$@......$@.....
 603ba0 9a244000 00000000 b1244000 00000000  .$@......$@.....
 603bb0 b9244000 00000000 d0244000 00000000  .$@......$@.....
 603bc0 d8244000 00000000 ef244000 00000000  .$@......$@.....
 603bd0 f7244000 00000000 0e254000 00000000  .$@......%@.....
 603be0 16254000 00000000 2d254000 00000000  .%@.....-%@.....
 603bf0 35254000 00000000 4c254000 00000000  5%@.....L%@.....
 603c00 54254000 00000000 6b254000 00000000  T%@.....k%@.....
 603c10 73254000 00000000 8a254000 00000000  s%@......%@.....
 603c20 92254000 00000000 a9254000 00000000  .%@......%@.....
 603c30 b1254000 00000000 c8254000 00000000  .%@......%@.....
 603c40 d0254000 00000000 e7254000 00000000  .%@......%@.....
 603c50 ef254000 00000000 06264000 00000000  .%@......&@.....
 603c60 0e264000 00000000 25264000 00000000  .&@.....%&@.....
 603c70 2d264000 00000000 44264000 00000000  -&@.....D&@.....
 603c80 4c264000 00000000 63264000 00000000  L&@.....c&@.....
 603c90 6b264000 00000000 82264000 00000000  k&@......&@.....
 603ca0 8a264000 00000000 a1264000 00000000  .&@......&@.....
 603cb0 a9264000 00000000 c0264000 00000000  .&@......&@.....
 603cc0 c8264000 00000000 df264000 00000000  .&@......&@.....
 603cd0 e7264000 00000000 fe264000 00000000  .&@......&@.....
 603ce0 06274000 00000000 1d274000 00000000  .'@......'@.....
 603cf0 25274000 00000000 3c274000 00000000  %'@.....<'@.....
 603d00 44274000 00000000 5b274000 00000000  D'@.....['@.....
 603d10 63274000 00000000 7a274000 00000000  c'@.....z'@.....
 603d20 82274000 00000000 99274000 00000000  .'@......'@.....
 603d30 a1274000 00000000 b8274000 00000000  .'@......'@.....
 603d40 c0274000 00000000 d7274000 00000000  .'@......'@.....
 603d50 df274000 00000000 f6274000 00000000  .'@......'@.....
 603d60 fe274000 00000000 15284000 00000000  .'@......(@.....
 603d70 1d284000 00000000 34284000 00000000  .(@.....4(@.....
 603d80 3c284000 00000000 53284000 00000000  <(@.....S(@.....
 603d90 5b284000 00000000 72284000 00000000  [(@.....r(@.....
 603da0 7a284000 00000000 91284000 00000000  z(@......(@.....
 603db0 99284000 00000000 b0284000 00000000  .(@......(@.....
 603dc0 b8284000 00000000 cf284000 00000000  .(@......(@.....
 603dd0 d7284000 00000000 ee284000 00000000  .(@......(@.....
 603de0 f6284000 00000000 0d294000 00000000  .(@......)@.....
 603df0 15294000 00000000 2c294000 00000000  .)@.....,)@.....
 603e00 34294000 00000000 4b294000 00000000  4)@.....K)@.....
 603e10 53294000 00000000 6a294000 00000000  S)@.....j)@.....
 603e20 72294000 00000000 89294000 00000000  r)@......)@.....
 603e30 91294000 00000000 a8294000 00000000  .)@......)@.....
 603e40 b0294000 00000000 c7294000 00000000  .)@......)@.....
 603e50 cf294000 00000000 e6294000 00000000  .)@......)@.....
 603e60 ee294000 00000000 052a4000 00000000  .)@......*@.....
 603e70 0d2a4000 00000000 242a4000 00000000  .*@.....$*@.....
 603e80 2c2a4000 00000000 432a4000 00000000  ,*@.....C*@.....
 603e90 4b2a4000 00000000 642a4000 00000000  K*@.....d*@.....
 603ea0 6e2a4000 00000000 872a4000 00000000  n*@......*@.....
 603eb0 912a4000 00000000 aa2a4000 00000000  .*@......*@.....
 603ec0 b42a4000 00000000 cb2a4000 00000000  .*@......*@.....
 603ed0 d32a4000 00000000 ea2a4000 00000000  .*@......*@.....
 603ee0 f22a4000 00000000 092b4000 00000000  .*@......+@.....
 603ef0 112b4000 00000000 282b4000 00000000  .+@.....(+@.....
 603f00 302b4000 00000000 472b4000 00000000  0+@.....G+@.....
 603f10 4f2b4000 00000000 662b4000 00000000  O+@.....f+@.....
 603f20 6e2b4000 00000000 852b4000 00000000  n+@......+@.....
 603f30 8d2b4000 00000000 a42b4000 00000000  .+@......+@.....
 603f40 ac2b4000 00000000 c32b4000 00000000  .+@......+@.....
 603f50 cb2b4000 00000000 e22b4000 00000000  .+@......+@.....
 603f60 00000000 00000000 00000000 00000000  ................
 603f70 00000000 00000000 00000000 00000000  ................
 603f80 00000000 00000000 00000000 00000000  ................
 603f90 00000000 00000000 00000000 00000000  ................
 603fa0 00000000 00000000 00000000 00000000  ................
 603fb0 00000000 00000000 00000000 00000000  ................
 603fc0 00000000 00000000 00000000 00000000  ................
 603fd0 00000000 00000000 00000000 00000000  ................
 603fe0 00000000 00000000 00000000 00000000  ................
 603ff0 00000000 00000000 00000000 00000000  ................
 604000 00000000 00000000 00000000 00000000  ................
 604010 00000000 00000000 00000000 00000000  ................
 604020 00000000 00000000 00000000 00000000  ................
 604030 00000000 00000000 00000000 00000000  ................
 604040 00000000 00000000 00000000 00000000  ................
 604050 00000000 00000000 00000000 00000000  ................
 604060 00000000 00000000 00000000 00000000  ................
 604070 00000000 00000000 00000000 00000000  ................
 604080 00000000 00000000 00000000 00000000  ................
 604090 00000000 00000000 00000000 00000000  ................
 6040a0 00000000 00000000 00000000 00000000  ................
 6040b0 00000000 00000000 00000000 00000000  ................
 6040c0 00000000 00000000 00000000 00000000  ................
 6040d0 00000000 00000000 00000000 00000000  ................
 6040e0 00000000 00000000 00000000 00000000  ................
 6040f0 00000000 00000000 00000000 00000000  ................
 604100 00000000 00000000 00000000 00000000  ................
 604110 00000000 00000000 00000000 00000000  ................
 604120 00000000 00000000 00000000 00000000  ................
 604130 00000000 00000000 00000000 00000000  ................
 604140 00000000 00000000 00000000 00000000  ................
 604150 00000000 00000000 00000000 00000000  ................
 604160 00000000 00000000 00000000 00000000  ................
 604170 00000000 00000000 00000000 00000000  ................
 604180 00000000 00000000 00000000 00000000  ................
 604190 00000000 00000000 00000000 00000000  ................
 6041a0 00000000 00000000 00000000 00000000  ................
Contents of section .comment:
 0000 4743433a 2028474e 55292034 2e342e37  GCC: (GNU) 4.4.7
 0010 20323031 32303331 33202852 65642048   20120313 (Red H
 0020 61742034 2e342e37 2d313829 00474343  at 4.4.7-18).GCC
 0030 3a202847 4e552920 342e382e 3000      : (GNU) 4.8.0.  
Contents of section .debug_aranges:
 0000 2c000000 02000000 00000800 00000000  ,...............
 0010 100f4000 00000000 2d010000 00000000  ..@.....-.......
 0020 00000000 00000000 00000000 00000000  ................
Contents of section .debug_info:
 0000 67060000 04000000 00000801 4e010000  g...........N...
 0010 01e20100 00ef0100 00100f40 00000000  ...........@....
 0020 002d0100 00000000 00000000 00022300  .-............#.
 0030 000002d4 38000000 03080746 00000003  ....8......F....
 0040 0108b601 00000302 07fa0000 00030407  ................
 0050 4b000000 030106b8 01000003 0205c401  K...............
 0060 00000404 05696e74 00030805 67000000  .....int....g...
 0070 02070000 00038d69 00000002 0a020000  .......i........
 0080 038e6900 00000308 07450100 00050806  ..i......E......
 0090 08950000 00030106 bf010000 029d0100  ................
 00a0 000431a7 00000007 99010000 d8050f01  ..1.............
 00b0 2e020000 08930000 00051001 62000000  ............b...
 00c0 00080f00 00000515 018f0000 00080886  ................
 00d0 00000005 16018f00 00001008 14020000  ................
 00e0 0517018f 00000018 08aa0200 00051801  ................
 00f0 8f000000 2008e600 00000519 018f0000  .... ...........
 0100 00280880 01000005 1a018f00 00003008  .(............0.
 0110 34000000 051b018f 00000038 089a0000  4..........8....
 0120 00051c01 8f000000 40080d01 0000051e  ........@.......
 0130 018f0000 00480890 02000005 1f018f00  .....H..........
 0140 00005008 22020000 0520018f 00000058  ..P.".... .....X
 0150 08ad0100 00052201 66020000 60081c00  ......".f...`...
 0160 00000524 016c0200 0068087e 00000005  ...$.l...h.~....
 0170 26016200 00007008 21010000 052a0162  &.b...p.!....*.b
 0180 00000074 08b20000 00052c01 70000000  ...t......,.p...
 0190 7808a600 00000530 01460000 008008ce  x......0.F......
 01a0 01000005 31015400 00008208 2a000000  ....1.T.....*...
 01b0 05320172 02000083 081b0100 00053601  .2.r..........6.
 01c0 82020000 8808b600 0000053f 017b0000  ...........?.{..
 01d0 0090082f 02000005 48018d00 00009808  .../....H.......
 01e0 36020000 0549018d 000000a0 083d0200  6....I.......=..
 01f0 00054a01 8d000000 a8084402 0000054b  ..J.......D....K
 0200 018d0000 00b0084b 02000005 4c012d00  .......K....L.-.
 0210 0000b808 29010000 054e0162 000000c0  ....)....N.b....
 0220 08520200 00055001 88020000 c400098e  .R....P.........
 0230 01000005 b40ad500 00001805 ba660200  .............f..
 0240 000b0402 000005bb 66020000 000bf400  ........f.......
 0250 000005bc 6c020000 080ba801 000005c0  ....l...........
 0260 62000000 10000608 35020000 0608a700  b.......5.......
 0270 00000c95 00000082 0200000d 86000000  ................
 0280 00000608 2e020000 0c950000 00980200  ................
 0290 000d8600 00001300 06089e02 00000e95  ................
 02a0 00000003 08056200 00000308 07410000  ......b......A..
 02b0 000fa502 00000124 62000000 100f4000  .......$b.....@.
 02c0 00000000 2d010000 00000000 019c5b05  ....-.........[.
 02d0 000010a0 02000001 24620000 00000000  ........$b......
 02e0 00105b02 00000124 5b050000 62000000  ..[....$[...b...
 02f0 11e90100 0001268f 000000ae 00000012  ......&.........
 0300 3c0f4000 00000000 92050000 1e030000  <.@.............
 0310 13015409 03cd2940 00000000 00001259  ..T...)@.......Y
 0320 0f400000 000000ad 0500003d 03000013  .@.........=....
 0330 01550903 c41b4000 00000000 0012630f  .U....@.......c.
 0340 40000000 0000c405 00005403 00001301  @.........T.....
 0350 55013800 12750f40 00000000 00ad0500  U.8..u.@........
 0360 00730300 00130155 0903e11b 40000000  .s.....U....@...
 0370 00000012 7f0f4000 00000000 c4050000  ......@.........
 0380 8a030000 13015501 38001484 0f400000  ......U.8....@..
 0390 000000d6 05000012 8e0f4000 00000000  ..........@.....
 03a0 dd050000 b6030000 13015509 03481c40  ..........U..H.@
 03b0 00000000 00001298 0f400000 000000dd  .........@......
 03c0 050000d5 03000013 01550903 881c4000  .........U....@.
 03d0 00000000 00149d0f 40000000 0000f605  ........@.......
 03e0 000014a5 0f400000 00000001 06000014  .....@..........
 03f0 aa0f4000 00000000 12060000 12b40f40  ..@............@
 0400 00000000 00dd0500 001b0400 00130155  ...............U
 0410 0903b81c 40000000 00000014 b90f4000  ....@.........@.
 0420 00000000 f6050000 14c10f40 00000000  ...........@....
 0430 00190600 0014c60f 40000000 00001206  ........@.......
 0440 000012d0 0f400000 000000dd 05000061  .....@.........a
 0450 04000013 01550903 fb1b4000 00000000  .....U....@.....
 0460 0014d50f 40000000 0000f605 000014dd  ....@...........
 0470 0f400000 0000002a 06000014 e20f4000  .@.....*......@.
 0480 00000000 12060000 12ec0f40 00000000  ...........@....
 0490 00dd0500 00a70400 00130155 0903191c  ...........U....
 04a0 40000000 00000014 f10f4000 00000000  @.........@.....
 04b0 f6050000 14f90f40 00000000 003b0600  .......@.....;..
 04c0 0014fe0f 40000000 00001206 00001208  ....@...........
 04d0 10400000 000000dd 050000ed 04000013  .@..............
 04e0 01550903 e81c4000 00000000 00140d10  .U....@.........
 04f0 40000000 0000f605 00001415 10400000  @............@..
 0500 0000004c 06000014 1a104000 00000000  ...L......@.....
 0510 12060000 12241040 00000000 00dd0500  .....$.@........
 0520 00330500 00130155 0903281c 40000000  .3.....U..(.@...
 0530 00000014 29104000 00000000 f6050000  ....).@.........
 0540 14311040 00000000 005d0600 00143610  .1.@.....]....6.
 0550 40000000 00001206 00000006 088f0000  @...............
 0560 0015e000 000004a5 6c020000 153e0100  ........l....>..
 0570 0004a66c 02000016 be000000 01228c05  ...l........."..
 0580 00000903 f0416000 00000000 06089c00  .....A`.........
 0590 000017a2 01000004 0f018c05 0000ad05  ................
 05a0 00001898 02000018 98020000 00170000  ................
 05b0 00000469 01620000 00c40500 00189802  ...i.b..........
 05c0 00001900 1add0100 00062002 d6050000  .......... .....
 05d0 18620000 00001bc5 00000008 091c2f01  .b............/.
 05e0 00000900 39010000 62000000 f6050000  ....9...b.......
 05f0 18980200 00001d58 00000008 088f0000  .......X........
 0600 001e6002 00000704 12060000 188f0000  ..`.............
 0610 00001b70 00000008 0b1e6802 00000705  ...p......h.....
 0620 2a060000 188f0000 00001e70 02000007  *..........p....
 0630 063b0600 00188f00 0000001e 78020000  .;..........x...
 0640 07074c06 0000188f 00000000 1e800200  ..L.............
 0650 0007085d 06000018 8f000000 001f8802  ...]............
 0660 00000709 188f0000 000000             ...........     
Contents of section .debug_abbrev:
 0000 01110125 0e130b03 0e1b0e11 01120710  ...%............
 0010 17000002 1600030e 3a0b3b0b 49130000  ........:.;.I...
 0020 0324000b 0b3e0b03 0e000004 24000b0b  .$...>......$...
 0030 3e0b0308 0000050f 000b0b00 00060f00  >...............
 0040 0b0b4913 00000713 01030e0b 0b3a0b3b  ..I..........:.;
 0050 05011300 00080d00 030e3a0b 3b054913  ..........:.;.I.
 0060 380b0000 09160003 0e3a0b3b 0b00000a  8........:.;....
 0070 1301030e 0b0b3a0b 3b0b0113 00000b0d  ......:.;.......
 0080 00030e3a 0b3b0b49 13380b00 000c0101  ...:.;.I.8......
 0090 49130113 00000d21 0049132f 0b00000e  I......!.I./....
 00a0 26004913 00000f2e 013f1903 0e3a0b3b  &.I......?...:.;
 00b0 0b271949 13110112 07401897 42190113  .'.I.....@..B...
 00c0 00001005 00030e3a 0b3b0b49 13021700  .......:.;.I....
 00d0 00113400 030e3a0b 3b0b4913 02170000  ..4...:.;.I.....
 00e0 12898201 01110131 13011300 00138a82  .......1........
 00f0 01000218 91421800 00148982 01001101  .....B..........
 0100 31130000 15340003 0e3a0b3b 0b49133f  1....4...:.;.I.?
 0110 193c1900 00163400 030e3a0b 3b0b4913  .<....4...:.;.I.
 0120 3f190218 0000172e 013f1903 0e3a0b3b  ?........?...:.;
 0130 05271949 133c1901 13000018 05004913  .'.I.<........I.
 0140 00001918 0000001a 2e013f19 030e3a0b  ..........?...:.
 0150 3b052719 3c190113 00001b2e 003f1903  ;.'.<........?..
 0160 0e3a0b3b 0b27193c 1900001c 2e013f19  .:.;.'.<......?.
 0170 030e3a0b 3b0b6e0e 27194913 3c190113  ..:.;.n.'.I.<...
 0180 00001d2e 003f1903 0e3a0b3b 0b271949  .....?...:.;.'.I
 0190 133c1900 001e2e01 3f19030e 3a0b3b0b  .<......?...:.;.
 01a0 27193c19 01130000 1f2e013f 19030e3a  '.<........?...:
 01b0 0b3b0b27 193c1900 0000               .;.'.<....      
Contents of section .debug_line:
 0000 1e010000 0200de00 00000101 fb0e0d00  ................
 0010 01010101 00000001 0000012f 7573722f  .........../usr/
 0020 7375702f 6763632d 342e382e 302f6c69  sup/gcc-4.8.0/li
 0030 622f6763 632f7838 365f3634 2d756e6b  b/gcc/x86_64-unk
 0040 6e6f776e 2d6c696e 75782d67 6e752f34  nown-linux-gnu/4
 0050 2e382e30 2f696e63 6c756465 002f7573  .8.0/include./us
 0060 722f696e 636c7564 652f6269 7473002f  r/include/bits./
 0070 7573722f 696e636c 75646500 00626f6d  usr/include..bom
 0080 622e6300 00000073 74646465 662e6800  b.c....stddef.h.
 0090 01000074 79706573 2e680002 00007374  ...types.h....st
 00a0 64696f2e 68000300 006c6962 696f2e68  dio.h....libio.h
 00b0 00030000 7374646c 69622e68 00030000  ....stdlib.h....
 00c0 70686173 65732e68 00000000 73757070  phases.h....supp
 00d0 6f72742e 68000000 003c6275 696c742d  ort.h....<built-
 00e0 696e3e00 00000000 00090210 0f400000  in>..........@..
 00f0 00000003 24012859 08355908 910813a4  ....$.(Y.5Y.....
 0100 0821a25a 9fa15983 5aa25983 59a25983  .!.Z..Y.Z.Y.Y.Y.
 0110 59a15983 59a15983 59a25983 5e020700  Y.Y.Y.Y.Y.Y.^...
 0120 0101                                 ..              
Contents of section .debug_str:
 0000 7072696e 7466005f 5f6f6666 5f74005f  printf.__off_t._
 0010 494f5f72 6561645f 70747200 5f636861  IO_read_ptr._cha
 0020 696e0073 697a655f 74005f73 686f7274  in.size_t._short
 0030 62756600 5f494f5f 6275665f 62617365  buf._IO_buf_base
 0040 006c6f6e 67206c6f 6e672075 6e736967  .long long unsig
 0050 6e656420 696e7400 72656164 5f6c696e  ned int.read_lin
 0060 65006c6f 6e67206c 6f6e6720 696e7400  e.long long int.
 0070 70686173 655f6465 66757365 64005f66  phase_defused._f
 0080 696c656e 6f005f49 4f5f7265 61645f65  ileno._IO_read_e
 0090 6e64005f 666c6167 73005f49 4f5f6275  nd._flags._IO_bu
 00a0 665f656e 64005f63 75725f63 6f6c756d  f_end._cur_colum
 00b0 6e005f6f 6c645f6f 66667365 7400696e  n._old_offset.in
 00c0 66696c65 00696e69 7469616c 697a655f  file.initialize_
 00d0 626f6d62 005f494f 5f6d6172 6b657200  bomb._IO_marker.
 00e0 73746469 6e005f49 4f5f7772 6974655f  stdin._IO_write_
 00f0 70747200 5f736275 66007368 6f727420  ptr._sbuf.short 
 0100 756e7369 676e6564 20696e74 005f494f  unsigned int._IO
 0110 5f736176 655f6261 7365005f 6c6f636b  _save_base._lock
 0120 005f666c 61677332 005f6d6f 6465005f  ._flags2._mode._
 0130 5f627569 6c74696e 5f707574 73007374  _builtin_puts.st
 0140 646f7574 0073697a 65747970 6500474e  dout.sizetype.GN
 0150 55204320 342e382e 30202d6d 74756e65  U C 4.8.0 -mtune
 0160 3d67656e 65726963 202d6d61 7263683d  =generic -march=
 0170 7838362d 3634202d 67676462 202d4f00  x86-64 -ggdb -O.
 0180 5f494f5f 77726974 655f656e 64005f49  _IO_write_end._I
 0190 4f5f6c6f 636b5f74 005f494f 5f46494c  O_lock_t._IO_FIL
 01a0 4500666f 70656e00 5f706f73 005f6d61  E.fopen._pos._ma
 01b0 726b6572 7300756e 7369676e 65642063  rkers.unsigned c
 01c0 68617200 73686f72 7420696e 74005f76  har.short int._v
 01d0 7461626c 655f6f66 66736574 00657869  table_offset.exi
 01e0 7400626f 6d622e63 00696e70 7574002f  t.bomb.c.input./
 01f0 636f6d70 2f34302f 626f6d62 6c61622f  comp/40/bomblab/
 0200 73726300 5f6e6578 74005f5f 6f666636  src._next.__off6
 0210 345f7400 5f494f5f 72656164 5f626173  4_t._IO_read_bas
 0220 65005f49 4f5f7361 76655f65 6e64005f  e._IO_save_end._
 0230 5f706164 31005f5f 70616432 005f5f70  _pad1.__pad2.__p
 0240 61643300 5f5f7061 6434005f 5f706164  ad3.__pad4.__pad
 0250 35005f75 6e757365 64320061 72677600  5._unused2.argv.
 0260 70686173 655f3100 70686173 655f3200  phase_1.phase_2.
 0270 70686173 655f3300 70686173 655f3400  phase_3.phase_4.
 0280 70686173 655f3500 70686173 655f3600  phase_5.phase_6.
 0290 5f494f5f 6261636b 75705f62 61736500  _IO_backup_base.
 02a0 61726763 006d6169 6e005f49 4f5f7772  argc.main._IO_wr
 02b0 6974655f 62617365 00                 ite_base.       
Contents of section .debug_loc:
 0000 00000000 00000000 22000000 00000000  ........".......
 0010 01005522 00000000 00000053 00000000  ..U".......S....
 0020 00000004 00f30155 9f530000 00000000  .......U.S......
 0030 005b0000 00000000 00010055 5b000000  .[.........U[...
 0040 00000000 2d010000 00000000 0400f301  ....-...........
 0050 559f0000 00000000 00000000 00000000  U...............
 0060 00000000 00000000 00001e00 00000000  ................
 0070 00000100 541e0000 00000000 006f0000  ....T........o..
 0080 00000000 00010053 6f000000 00000000  .......So.......
 0090 2d010000 00000000 0400f301 549f0000  -...........T...
 00a0 00000000 00000000 00000000 00008d00  ................
 00b0 00000000 00009400 00000000 00000100  ................
 00c0 50a90000 00000000 00b00000 00000000  P...............
 00d0 00010050 c5000000 00000000 cc000000  ...P............
 00e0 00000000 010050e1 00000000 000000e8  ......P.........
 00f0 00000000 00000001 0050fd00 00000000  .........P......
 0100 00000401 00000000 00000100 50190100  ............P...
 0110 00000000 00200100 00000000 00010050  ..... .........P
 0120 00000000 00000000 00000000 00000000  ................

Disassembly of section .init:

0000000000400b88 <_init>:
  400b88:	48 83 ec 08          	sub    $0x8,%rsp
  400b8c:	e8 4b 02 00 00       	callq  400ddc <call_gmon_start>
  400b91:	e8 4a 03 00 00       	callq  400ee0 <frame_dummy>
  400b96:	e8 d5 0f 00 00       	callq  401b70 <__do_global_ctors_aux>
  400b9b:	48 83 c4 08          	add    $0x8,%rsp
  400b9f:	c3                   	retq   

Disassembly of section .plt:

0000000000400ba0 <.plt>:
  400ba0:	ff 35 52 26 20 00    	pushq  0x202652(%rip)        # 6031f8 <_GLOBAL_OFFSET_TABLE_+0x8>
  400ba6:	ff 25 54 26 20 00    	jmpq   *0x202654(%rip)        # 603200 <_GLOBAL_OFFSET_TABLE_+0x10>
  400bac:	0f 1f 40 00          	nopl   0x0(%rax)

0000000000400bb0 <printf@plt>:
  400bb0:	ff 25 52 26 20 00    	jmpq   *0x202652(%rip)        # 603208 <printf@GLIBC_2.2.5>
  400bb6:	68 00 00 00 00       	pushq  $0x0
  400bbb:	e9 e0 ff ff ff       	jmpq   400ba0 <.plt>

0000000000400bc0 <close@plt>:
  400bc0:	ff 25 4a 26 20 00    	jmpq   *0x20264a(%rip)        # 603210 <close@GLIBC_2.2.5>
  400bc6:	68 01 00 00 00       	pushq  $0x1
  400bcb:	e9 d0 ff ff ff       	jmpq   400ba0 <.plt>

0000000000400bd0 <gethostbyname@plt>:
  400bd0:	ff 25 42 26 20 00    	jmpq   *0x202642(%rip)        # 603218 <gethostbyname@GLIBC_2.2.5>
  400bd6:	68 02 00 00 00       	pushq  $0x2
  400bdb:	e9 c0 ff ff ff       	jmpq   400ba0 <.plt>

0000000000400be0 <puts@plt>:
  400be0:	ff 25 3a 26 20 00    	jmpq   *0x20263a(%rip)        # 603220 <puts@GLIBC_2.2.5>
  400be6:	68 03 00 00 00       	pushq  $0x3
  400beb:	e9 b0 ff ff ff       	jmpq   400ba0 <.plt>

0000000000400bf0 <__isoc99_sscanf@plt>:
  400bf0:	ff 25 32 26 20 00    	jmpq   *0x202632(%rip)        # 603228 <__isoc99_sscanf@GLIBC_2.7>
  400bf6:	68 04 00 00 00       	pushq  $0x4
  400bfb:	e9 a0 ff ff ff       	jmpq   400ba0 <.plt>

0000000000400c00 <exit@plt>:
  400c00:	ff 25 2a 26 20 00    	jmpq   *0x20262a(%rip)        # 603230 <exit@GLIBC_2.2.5>
  400c06:	68 05 00 00 00       	pushq  $0x5
  400c0b:	e9 90 ff ff ff       	jmpq   400ba0 <.plt>

0000000000400c10 <strcasecmp@plt>:
  400c10:	ff 25 22 26 20 00    	jmpq   *0x202622(%rip)        # 603238 <strcasecmp@GLIBC_2.2.5>
  400c16:	68 06 00 00 00       	pushq  $0x6
  400c1b:	e9 80 ff ff ff       	jmpq   400ba0 <.plt>

0000000000400c20 <fopen@plt>:
  400c20:	ff 25 1a 26 20 00    	jmpq   *0x20261a(%rip)        # 603240 <fopen@GLIBC_2.2.5>
  400c26:	68 07 00 00 00       	pushq  $0x7
  400c2b:	e9 70 ff ff ff       	jmpq   400ba0 <.plt>

0000000000400c30 <__libc_start_main@plt>:
  400c30:	ff 25 12 26 20 00    	jmpq   *0x202612(%rip)        # 603248 <__libc_start_main@GLIBC_2.2.5>
  400c36:	68 08 00 00 00       	pushq  $0x8
  400c3b:	e9 60 ff ff ff       	jmpq   400ba0 <.plt>

0000000000400c40 <dup@plt>:
  400c40:	ff 25 0a 26 20 00    	jmpq   *0x20260a(%rip)        # 603250 <dup@GLIBC_2.2.5>
  400c46:	68 09 00 00 00       	pushq  $0x9
  400c4b:	e9 50 ff ff ff       	jmpq   400ba0 <.plt>

0000000000400c50 <system@plt>:
  400c50:	ff 25 02 26 20 00    	jmpq   *0x202602(%rip)        # 603258 <system@GLIBC_2.2.5>
  400c56:	68 0a 00 00 00       	pushq  $0xa
  400c5b:	e9 40 ff ff ff       	jmpq   400ba0 <.plt>

0000000000400c60 <fgets@plt>:
  400c60:	ff 25 fa 25 20 00    	jmpq   *0x2025fa(%rip)        # 603260 <fgets@GLIBC_2.2.5>
  400c66:	68 0b 00 00 00       	pushq  $0xb
  400c6b:	e9 30 ff ff ff       	jmpq   400ba0 <.plt>

0000000000400c70 <fputc@plt>:
  400c70:	ff 25 f2 25 20 00    	jmpq   *0x2025f2(%rip)        # 603268 <fputc@GLIBC_2.2.5>
  400c76:	68 0c 00 00 00       	pushq  $0xc
  400c7b:	e9 20 ff ff ff       	jmpq   400ba0 <.plt>

0000000000400c80 <bcopy@plt>:
  400c80:	ff 25 ea 25 20 00    	jmpq   *0x2025ea(%rip)        # 603270 <bcopy@GLIBC_2.2.5>
  400c86:	68 0d 00 00 00       	pushq  $0xd
  400c8b:	e9 10 ff ff ff       	jmpq   400ba0 <.plt>

0000000000400c90 <__ctype_b_loc@plt>:
  400c90:	ff 25 e2 25 20 00    	jmpq   *0x2025e2(%rip)        # 603278 <__ctype_b_loc@GLIBC_2.3>
  400c96:	68 0e 00 00 00       	pushq  $0xe
  400c9b:	e9 00 ff ff ff       	jmpq   400ba0 <.plt>

0000000000400ca0 <sprintf@plt>:
  400ca0:	ff 25 da 25 20 00    	jmpq   *0x2025da(%rip)        # 603280 <sprintf@GLIBC_2.2.5>
  400ca6:	68 0f 00 00 00       	pushq  $0xf
  400cab:	e9 f0 fe ff ff       	jmpq   400ba0 <.plt>

0000000000400cb0 <sscanf@plt>:
  400cb0:	ff 25 d2 25 20 00    	jmpq   *0x2025d2(%rip)        # 603288 <sscanf@GLIBC_2.2.5>
  400cb6:	68 10 00 00 00       	pushq  $0x10
  400cbb:	e9 e0 fe ff ff       	jmpq   400ba0 <.plt>

0000000000400cc0 <sleep@plt>:
  400cc0:	ff 25 ca 25 20 00    	jmpq   *0x2025ca(%rip)        # 603290 <sleep@GLIBC_2.2.5>
  400cc6:	68 11 00 00 00       	pushq  $0x11
  400ccb:	e9 d0 fe ff ff       	jmpq   400ba0 <.plt>

0000000000400cd0 <rewind@plt>:
  400cd0:	ff 25 c2 25 20 00    	jmpq   *0x2025c2(%rip)        # 603298 <rewind@GLIBC_2.2.5>
  400cd6:	68 12 00 00 00       	pushq  $0x12
  400cdb:	e9 c0 fe ff ff       	jmpq   400ba0 <.plt>

0000000000400ce0 <strtol@plt>:
  400ce0:	ff 25 ba 25 20 00    	jmpq   *0x2025ba(%rip)        # 6032a0 <strtol@GLIBC_2.2.5>
  400ce6:	68 13 00 00 00       	pushq  $0x13
  400ceb:	e9 b0 fe ff ff       	jmpq   400ba0 <.plt>

0000000000400cf0 <connect@plt>:
  400cf0:	ff 25 b2 25 20 00    	jmpq   *0x2025b2(%rip)        # 6032a8 <connect@GLIBC_2.2.5>
  400cf6:	68 14 00 00 00       	pushq  $0x14
  400cfb:	e9 a0 fe ff ff       	jmpq   400ba0 <.plt>

0000000000400d00 <gethostname@plt>:
  400d00:	ff 25 aa 25 20 00    	jmpq   *0x2025aa(%rip)        # 6032b0 <gethostname@GLIBC_2.2.5>
  400d06:	68 15 00 00 00       	pushq  $0x15
  400d0b:	e9 90 fe ff ff       	jmpq   400ba0 <.plt>

0000000000400d10 <tmpfile@plt>:
  400d10:	ff 25 a2 25 20 00    	jmpq   *0x2025a2(%rip)        # 6032b8 <tmpfile@GLIBC_2.2.5>
  400d16:	68 16 00 00 00       	pushq  $0x16
  400d1b:	e9 80 fe ff ff       	jmpq   400ba0 <.plt>

0000000000400d20 <signal@plt>:
  400d20:	ff 25 9a 25 20 00    	jmpq   *0x20259a(%rip)        # 6032c0 <signal@GLIBC_2.2.5>
  400d26:	68 17 00 00 00       	pushq  $0x17
  400d2b:	e9 70 fe ff ff       	jmpq   400ba0 <.plt>

0000000000400d30 <socket@plt>:
  400d30:	ff 25 92 25 20 00    	jmpq   *0x202592(%rip)        # 6032c8 <socket@GLIBC_2.2.5>
  400d36:	68 18 00 00 00       	pushq  $0x18
  400d3b:	e9 60 fe ff ff       	jmpq   400ba0 <.plt>

0000000000400d40 <getenv@plt>:
  400d40:	ff 25 8a 25 20 00    	jmpq   *0x20258a(%rip)        # 6032d0 <getenv@GLIBC_2.2.5>
  400d46:	68 19 00 00 00       	pushq  $0x19
  400d4b:	e9 50 fe ff ff       	jmpq   400ba0 <.plt>

0000000000400d50 <cuserid@plt>:
  400d50:	ff 25 82 25 20 00    	jmpq   *0x202582(%rip)        # 6032d8 <cuserid@GLIBC_2.2.5>
  400d56:	68 1a 00 00 00       	pushq  $0x1a
  400d5b:	e9 40 fe ff ff       	jmpq   400ba0 <.plt>

0000000000400d60 <strcpy@plt>:
  400d60:	ff 25 7a 25 20 00    	jmpq   *0x20257a(%rip)        # 6032e0 <strcpy@GLIBC_2.2.5>
  400d66:	68 1b 00 00 00       	pushq  $0x1b
  400d6b:	e9 30 fe ff ff       	jmpq   400ba0 <.plt>

0000000000400d70 <fclose@plt>:
  400d70:	ff 25 72 25 20 00    	jmpq   *0x202572(%rip)        # 6032e8 <fclose@GLIBC_2.2.5>
  400d76:	68 1c 00 00 00       	pushq  $0x1c
  400d7b:	e9 20 fe ff ff       	jmpq   400ba0 <.plt>

0000000000400d80 <fwrite@plt>:
  400d80:	ff 25 6a 25 20 00    	jmpq   *0x20256a(%rip)        # 6032f0 <fwrite@GLIBC_2.2.5>
  400d86:	68 1d 00 00 00       	pushq  $0x1d
  400d8b:	e9 10 fe ff ff       	jmpq   400ba0 <.plt>

0000000000400d90 <fprintf@plt>:
  400d90:	ff 25 62 25 20 00    	jmpq   *0x202562(%rip)        # 6032f8 <fprintf@GLIBC_2.2.5>
  400d96:	68 1e 00 00 00       	pushq  $0x1e
  400d9b:	e9 00 fe ff ff       	jmpq   400ba0 <.plt>

0000000000400da0 <fflush@plt>:
  400da0:	ff 25 5a 25 20 00    	jmpq   *0x20255a(%rip)        # 603300 <fflush@GLIBC_2.2.5>
  400da6:	68 1f 00 00 00       	pushq  $0x1f
  400dab:	e9 f0 fd ff ff       	jmpq   400ba0 <.plt>

Disassembly of section .text:

0000000000400db0 <_start>:
  400db0:	31 ed                	xor    %ebp,%ebp
  400db2:	49 89 d1             	mov    %rdx,%r9
  400db5:	5e                   	pop    %rsi
  400db6:	48 89 e2             	mov    %rsp,%rdx
  400db9:	48 83 e4 f0          	and    $0xfffffffffffffff0,%rsp
  400dbd:	50                   	push   %rax
  400dbe:	54                   	push   %rsp
  400dbf:	49 c7 c0 d0 1a 40 00 	mov    $0x401ad0,%r8
  400dc6:	48 c7 c1 e0 1a 40 00 	mov    $0x401ae0,%rcx
  400dcd:	48 c7 c7 10 0f 40 00 	mov    $0x400f10,%rdi
  400dd4:	e8 57 fe ff ff       	callq  400c30 <__libc_start_main@plt>
  400dd9:	f4                   	hlt    
  400dda:	90                   	nop
  400ddb:	90                   	nop

0000000000400ddc <call_gmon_start>:
  400ddc:	48 83 ec 08          	sub    $0x8,%rsp
  400de0:	48 8b 05 01 24 20 00 	mov    0x202401(%rip),%rax        # 6031e8 <__gmon_start__>
  400de7:	48 85 c0             	test   %rax,%rax
  400dea:	74 02                	je     400dee <call_gmon_start+0x12>
  400dec:	ff d0                	callq  *%rax
  400dee:	48 83 c4 08          	add    $0x8,%rsp
  400df2:	c3                   	retq   
  400df3:	90                   	nop
  400df4:	90                   	nop
  400df5:	90                   	nop
  400df6:	90                   	nop
  400df7:	90                   	nop
  400df8:	90                   	nop
  400df9:	90                   	nop
  400dfa:	90                   	nop
  400dfb:	90                   	nop
  400dfc:	90                   	nop
  400dfd:	90                   	nop
  400dfe:	90                   	nop
  400dff:	90                   	nop

0000000000400e00 <deregister_tm_clones>:
  400e00:	b8 b7 41 60 00       	mov    $0x6041b7,%eax
  400e05:	55                   	push   %rbp
  400e06:	48 2d b0 41 60 00    	sub    $0x6041b0,%rax
  400e0c:	48 83 f8 0e          	cmp    $0xe,%rax
  400e10:	48 89 e5             	mov    %rsp,%rbp
  400e13:	77 02                	ja     400e17 <deregister_tm_clones+0x17>
  400e15:	5d                   	pop    %rbp
  400e16:	c3                   	retq   
  400e17:	b8 00 00 00 00       	mov    $0x0,%eax
  400e1c:	48 85 c0             	test   %rax,%rax
  400e1f:	74 f4                	je     400e15 <deregister_tm_clones+0x15>
  400e21:	5d                   	pop    %rbp
  400e22:	bf b0 41 60 00       	mov    $0x6041b0,%edi
  400e27:	ff e0                	jmpq   *%rax
  400e29:	0f 1f 80 00 00 00 00 	nopl   0x0(%rax)

0000000000400e30 <register_tm_clones>:
  400e30:	b8 b0 41 60 00       	mov    $0x6041b0,%eax
  400e35:	55                   	push   %rbp
  400e36:	48 2d b0 41 60 00    	sub    $0x6041b0,%rax
  400e3c:	48 c1 f8 03          	sar    $0x3,%rax
  400e40:	48 89 e5             	mov    %rsp,%rbp
  400e43:	48 89 c2             	mov    %rax,%rdx
  400e46:	48 c1 ea 3f          	shr    $0x3f,%rdx
  400e4a:	48 01 d0             	add    %rdx,%rax
  400e4d:	48 d1 f8             	sar    %rax
  400e50:	75 02                	jne    400e54 <register_tm_clones+0x24>
  400e52:	5d                   	pop    %rbp
  400e53:	c3                   	retq   
  400e54:	ba 00 00 00 00       	mov    $0x0,%edx
  400e59:	48 85 d2             	test   %rdx,%rdx
  400e5c:	74 f4                	je     400e52 <register_tm_clones+0x22>
  400e5e:	5d                   	pop    %rbp
  400e5f:	48 89 c6             	mov    %rax,%rsi
  400e62:	bf b0 41 60 00       	mov    $0x6041b0,%edi
  400e67:	ff e2                	jmpq   *%rdx
  400e69:	0f 1f 80 00 00 00 00 	nopl   0x0(%rax)

0000000000400e70 <__do_global_dtors_aux>:
  400e70:	80 3d 61 33 20 00 00 	cmpb   $0x0,0x203361(%rip)        # 6041d8 <completed.6296>
  400e77:	75 5f                	jne    400ed8 <__do_global_dtors_aux+0x68>
  400e79:	55                   	push   %rbp
  400e7a:	48 89 e5             	mov    %rsp,%rbp
  400e7d:	53                   	push   %rbx
  400e7e:	bb 48 30 60 00       	mov    $0x603048,%ebx
  400e83:	48 81 eb 40 30 60 00 	sub    $0x603040,%rbx
  400e8a:	48 83 ec 08          	sub    $0x8,%rsp
  400e8e:	48 8b 05 4b 33 20 00 	mov    0x20334b(%rip),%rax        # 6041e0 <dtor_idx.6298>
  400e95:	48 c1 fb 03          	sar    $0x3,%rbx
  400e99:	48 83 eb 01          	sub    $0x1,%rbx
  400e9d:	48 39 d8             	cmp    %rbx,%rax
  400ea0:	73 24                	jae    400ec6 <__do_global_dtors_aux+0x56>
  400ea2:	66 0f 1f 44 00 00    	nopw   0x0(%rax,%rax,1)
  400ea8:	48 83 c0 01          	add    $0x1,%rax
  400eac:	48 89 05 2d 33 20 00 	mov    %rax,0x20332d(%rip)        # 6041e0 <dtor_idx.6298>
  400eb3:	ff 14 c5 40 30 60 00 	callq  *0x603040(,%rax,8)
  400eba:	48 8b 05 1f 33 20 00 	mov    0x20331f(%rip),%rax        # 6041e0 <dtor_idx.6298>
  400ec1:	48 39 d8             	cmp    %rbx,%rax
  400ec4:	72 e2                	jb     400ea8 <__do_global_dtors_aux+0x38>
  400ec6:	e8 35 ff ff ff       	callq  400e00 <deregister_tm_clones>
  400ecb:	c6 05 06 33 20 00 01 	movb   $0x1,0x203306(%rip)        # 6041d8 <completed.6296>
  400ed2:	48 83 c4 08          	add    $0x8,%rsp
  400ed6:	5b                   	pop    %rbx
  400ed7:	5d                   	pop    %rbp
  400ed8:	c3                   	retq   
  400ed9:	0f 1f 80 00 00 00 00 	nopl   0x0(%rax)

0000000000400ee0 <frame_dummy>:
  400ee0:	48 83 3d 68 21 20 00 	cmpq   $0x0,0x202168(%rip)        # 603050 <__JCR_END__>
  400ee7:	00 
  400ee8:	74 1e                	je     400f08 <frame_dummy+0x28>
  400eea:	b8 00 00 00 00       	mov    $0x0,%eax
  400eef:	48 85 c0             	test   %rax,%rax
  400ef2:	74 14                	je     400f08 <frame_dummy+0x28>
  400ef4:	55                   	push   %rbp
  400ef5:	bf 50 30 60 00       	mov    $0x603050,%edi
  400efa:	48 89 e5             	mov    %rsp,%rbp
  400efd:	ff d0                	callq  *%rax
  400eff:	5d                   	pop    %rbp
  400f00:	e9 2b ff ff ff       	jmpq   400e30 <register_tm_clones>
  400f05:	0f 1f 00             	nopl   (%rax)
  400f08:	e9 23 ff ff ff       	jmpq   400e30 <register_tm_clones>
  400f0d:	90                   	nop
  400f0e:	90                   	nop
  400f0f:	90                   	nop

0000000000400f10 <main>:
  400f10:	53                   	push   %rbx
  400f11:	83 ff 01             	cmp    $0x1,%edi
  400f14:	75 10                	jne    400f26 <main+0x16>
  400f16:	48 8b 05 a3 32 20 00 	mov    0x2032a3(%rip),%rax        # 6041c0 <stdin@@GLIBC_2.2.5>
  400f1d:	48 89 05 cc 32 20 00 	mov    %rax,0x2032cc(%rip)        # 6041f0 <infile>
  400f24:	eb 59                	jmp    400f7f <main+0x6f>
  400f26:	48 89 f3             	mov    %rsi,%rbx
  400f29:	83 ff 02             	cmp    $0x2,%edi
  400f2c:	75 35                	jne    400f63 <main+0x53>
  400f2e:	48 8b 7e 08          	mov    0x8(%rsi),%rdi
  400f32:	be cd 29 40 00       	mov    $0x4029cd,%esi
  400f37:	e8 e4 fc ff ff       	callq  400c20 <fopen@plt>
  400f3c:	48 89 05 ad 32 20 00 	mov    %rax,0x2032ad(%rip)        # 6041f0 <infile>
  400f43:	48 85 c0             	test   %rax,%rax
  400f46:	75 37                	jne    400f7f <main+0x6f>
  400f48:	48 8b 53 08          	mov    0x8(%rbx),%rdx
  400f4c:	48 8b 33             	mov    (%rbx),%rsi
  400f4f:	bf c4 1b 40 00       	mov    $0x401bc4,%edi
  400f54:	e8 57 fc ff ff       	callq  400bb0 <printf@plt>
  400f59:	bf 08 00 00 00       	mov    $0x8,%edi
  400f5e:	e8 9d fc ff ff       	callq  400c00 <exit@plt>
  400f63:	48 8b 36             	mov    (%rsi),%rsi
  400f66:	bf e1 1b 40 00       	mov    $0x401be1,%edi
  400f6b:	b8 00 00 00 00       	mov    $0x0,%eax
  400f70:	e8 3b fc ff ff       	callq  400bb0 <printf@plt>
  400f75:	bf 08 00 00 00       	mov    $0x8,%edi
  400f7a:	e8 81 fc ff ff       	callq  400c00 <exit@plt>
  400f7f:	e8 38 06 00 00       	callq  4015bc <initialize_bomb>
  400f84:	bf 48 1c 40 00       	mov    $0x401c48,%edi
  400f89:	e8 52 fc ff ff       	callq  400be0 <puts@plt>
  400f8e:	bf 88 1c 40 00       	mov    $0x401c88,%edi
  400f93:	e8 48 fc ff ff       	callq  400be0 <puts@plt>
  400f98:	e8 bf 09 00 00       	callq  40195c <read_line>
  400f9d:	48 89 c7             	mov    %rax,%rdi
  400fa0:	e8 9b 00 00 00       	callq  401040 <phase_1>
  400fa5:	e8 98 0a 00 00       	callq  401a42 <phase_defused>
  400faa:	bf b8 1c 40 00       	mov    $0x401cb8,%edi
  400faf:	e8 2c fc ff ff       	callq  400be0 <puts@plt>
  400fb4:	e8 a3 09 00 00       	callq  40195c <read_line>
  400fb9:	48 89 c7             	mov    %rax,%rdi
  400fbc:	e8 9b 00 00 00       	callq  40105c <phase_2>
  400fc1:	e8 7c 0a 00 00       	callq  401a42 <phase_defused>
  400fc6:	bf fb 1b 40 00       	mov    $0x401bfb,%edi
  400fcb:	e8 10 fc ff ff       	callq  400be0 <puts@plt>
  400fd0:	e8 87 09 00 00       	callq  40195c <read_line>
  400fd5:	48 89 c7             	mov    %rax,%rdi
  400fd8:	e8 ce 00 00 00       	callq  4010ab <phase_3>
  400fdd:	e8 60 0a 00 00       	callq  401a42 <phase_defused>
  400fe2:	bf 19 1c 40 00       	mov    $0x401c19,%edi
  400fe7:	e8 f4 fb ff ff       	callq  400be0 <puts@plt>
  400fec:	e8 6b 09 00 00       	callq  40195c <read_line>
  400ff1:	48 89 c7             	mov    %rax,%rdi
  400ff4:	e8 19 02 00 00       	callq  401212 <phase_4>
  400ff9:	e8 44 0a 00 00       	callq  401a42 <phase_defused>
  400ffe:	bf e8 1c 40 00       	mov    $0x401ce8,%edi
  401003:	e8 d8 fb ff ff       	callq  400be0 <puts@plt>
  401008:	e8 4f 09 00 00       	callq  40195c <read_line>
  40100d:	48 89 c7             	mov    %rax,%rdi
  401010:	e8 40 02 00 00       	callq  401255 <phase_5>
  401015:	e8 28 0a 00 00       	callq  401a42 <phase_defused>
  40101a:	bf 28 1c 40 00       	mov    $0x401c28,%edi
  40101f:	e8 bc fb ff ff       	callq  400be0 <puts@plt>
  401024:	e8 33 09 00 00       	callq  40195c <read_line>
  401029:	48 89 c7             	mov    %rax,%rdi
  40102c:	e8 01 03 00 00       	callq  401332 <phase_6>
  401031:	e8 0c 0a 00 00       	callq  401a42 <phase_defused>
  401036:	b8 00 00 00 00       	mov    $0x0,%eax
  40103b:	5b                   	pop    %rbx
  40103c:	c3                   	retq   
  40103d:	90                   	nop
  40103e:	90                   	nop
  40103f:	90                   	nop

0000000000401040 <phase_1>:
  401040:	48 83 ec 08          	sub    $0x8,%rsp
  401044:	be 10 1d 40 00       	mov    $0x401d10,%esi
  401049:	e8 40 04 00 00       	callq  40148e <strings_not_equal>
  40104e:	85 c0                	test   %eax,%eax
  401050:	74 05                	je     401057 <phase_1+0x17>
  401052:	e8 8d 08 00 00       	callq  4018e4 <explode_bomb>
  401057:	48 83 c4 08          	add    $0x8,%rsp
  40105b:	c3                   	retq   

000000000040105c <phase_2>:
  40105c:	41 55                	push   %r13
  40105e:	41 54                	push   %r12
  401060:	55                   	push   %rbp
  401061:	53                   	push   %rbx
  401062:	48 83 ec 28          	sub    $0x28,%rsp
  401066:	48 89 e6             	mov    %rsp,%rsi
  401069:	e8 ac 08 00 00       	callq  40191a <read_six_numbers>
  40106e:	48 89 e3             	mov    %rsp,%rbx
  401071:	4c 8d 6c 24 0c       	lea    0xc(%rsp),%r13
  401076:	bd 00 00 00 00       	mov    $0x0,%ebp
  40107b:	49 89 dc             	mov    %rbx,%r12
  40107e:	8b 43 0c             	mov    0xc(%rbx),%eax
  401081:	39 03                	cmp    %eax,(%rbx)
  401083:	74 05                	je     40108a <phase_2+0x2e>
  401085:	e8 5a 08 00 00       	callq  4018e4 <explode_bomb>
  40108a:	41 03 2c 24          	add    (%r12),%ebp
  40108e:	48 83 c3 04          	add    $0x4,%rbx
  401092:	4c 39 eb             	cmp    %r13,%rbx
  401095:	75 e4                	jne    40107b <phase_2+0x1f>
  401097:	85 ed                	test   %ebp,%ebp
  401099:	75 05                	jne    4010a0 <phase_2+0x44>
  40109b:	e8 44 08 00 00       	callq  4018e4 <explode_bomb>
  4010a0:	48 83 c4 28          	add    $0x28,%rsp
  4010a4:	5b                   	pop    %rbx
  4010a5:	5d                   	pop    %rbp
  4010a6:	41 5c                	pop    %r12
  4010a8:	41 5d                	pop    %r13
  4010aa:	c3                   	retq   

00000000004010ab <phase_3>:
  4010ab:	48 83 ec 18          	sub    $0x18,%rsp
  4010af:	4c 8d 44 24 08       	lea    0x8(%rsp),%r8
  4010b4:	48 8d 4c 24 07       	lea    0x7(%rsp),%rcx
  4010b9:	48 8d 54 24 0c       	lea    0xc(%rsp),%rdx
  4010be:	be 76 1d 40 00       	mov    $0x401d76,%esi
  4010c3:	b8 00 00 00 00       	mov    $0x0,%eax
  4010c8:	e8 23 fb ff ff       	callq  400bf0 <__isoc99_sscanf@plt>
  4010cd:	83 f8 02             	cmp    $0x2,%eax
  4010d0:	7f 05                	jg     4010d7 <phase_3+0x2c>
  4010d2:	e8 0d 08 00 00       	callq  4018e4 <explode_bomb>
  4010d7:	83 7c 24 0c 07       	cmpl   $0x7,0xc(%rsp)
  4010dc:	0f 87 fc 00 00 00    	ja     4011de <phase_3+0x133>
  4010e2:	8b 44 24 0c          	mov    0xc(%rsp),%eax
  4010e6:	ff 24 c5 90 1d 40 00 	jmpq   *0x401d90(,%rax,8)
  4010ed:	b8 65 00 00 00       	mov    $0x65,%eax
  4010f2:	81 7c 24 08 a1 03 00 	cmpl   $0x3a1,0x8(%rsp)
  4010f9:	00 
  4010fa:	0f 84 e8 00 00 00    	je     4011e8 <phase_3+0x13d>
  401100:	e8 df 07 00 00       	callq  4018e4 <explode_bomb>
  401105:	b8 65 00 00 00       	mov    $0x65,%eax
  40110a:	e9 d9 00 00 00       	jmpq   4011e8 <phase_3+0x13d>
  40110f:	b8 6b 00 00 00       	mov    $0x6b,%eax
  401114:	81 7c 24 08 0c 01 00 	cmpl   $0x10c,0x8(%rsp)
  40111b:	00 
  40111c:	0f 84 c6 00 00 00    	je     4011e8 <phase_3+0x13d>
  401122:	e8 bd 07 00 00       	callq  4018e4 <explode_bomb>
  401127:	b8 6b 00 00 00       	mov    $0x6b,%eax
  40112c:	e9 b7 00 00 00       	jmpq   4011e8 <phase_3+0x13d>
  401131:	b8 69 00 00 00       	mov    $0x69,%eax
  401136:	81 7c 24 08 3c 03 00 	cmpl   $0x33c,0x8(%rsp)
  40113d:	00 
  40113e:	0f 84 a4 00 00 00    	je     4011e8 <phase_3+0x13d>
  401144:	e8 9b 07 00 00       	callq  4018e4 <explode_bomb>
  401149:	b8 69 00 00 00       	mov    $0x69,%eax
  40114e:	e9 95 00 00 00       	jmpq   4011e8 <phase_3+0x13d>
  401153:	b8 76 00 00 00       	mov    $0x76,%eax
  401158:	81 7c 24 08 27 01 00 	cmpl   $0x127,0x8(%rsp)
  40115f:	00 
  401160:	0f 84 82 00 00 00    	je     4011e8 <phase_3+0x13d>
  401166:	e8 79 07 00 00       	callq  4018e4 <explode_bomb>
  40116b:	b8 76 00 00 00       	mov    $0x76,%eax
  401170:	eb 76                	jmp    4011e8 <phase_3+0x13d>
  401172:	b8 64 00 00 00       	mov    $0x64,%eax
  401177:	81 7c 24 08 05 03 00 	cmpl   $0x305,0x8(%rsp)
  40117e:	00 
  40117f:	74 67                	je     4011e8 <phase_3+0x13d>
  401181:	e8 5e 07 00 00       	callq  4018e4 <explode_bomb>
  401186:	b8 64 00 00 00       	mov    $0x64,%eax
  40118b:	eb 5b                	jmp    4011e8 <phase_3+0x13d>
  40118d:	b8 64 00 00 00       	mov    $0x64,%eax
  401192:	81 7c 24 08 40 01 00 	cmpl   $0x140,0x8(%rsp)
  401199:	00 
  40119a:	74 4c                	je     4011e8 <phase_3+0x13d>
  40119c:	e8 43 07 00 00       	callq  4018e4 <explode_bomb>
  4011a1:	b8 64 00 00 00       	mov    $0x64,%eax
  4011a6:	eb 40                	jmp    4011e8 <phase_3+0x13d>
  4011a8:	b8 73 00 00 00       	mov    $0x73,%eax
  4011ad:	81 7c 24 08 c5 01 00 	cmpl   $0x1c5,0x8(%rsp)
  4011b4:	00 
  4011b5:	74 31                	je     4011e8 <phase_3+0x13d>
  4011b7:	e8 28 07 00 00       	callq  4018e4 <explode_bomb>
  4011bc:	b8 73 00 00 00       	mov    $0x73,%eax
  4011c1:	eb 25                	jmp    4011e8 <phase_3+0x13d>
  4011c3:	b8 67 00 00 00       	mov    $0x67,%eax
  4011c8:	81 7c 24 08 50 03 00 	cmpl   $0x350,0x8(%rsp)
  4011cf:	00 
  4011d0:	74 16                	je     4011e8 <phase_3+0x13d>
  4011d2:	e8 0d 07 00 00       	callq  4018e4 <explode_bomb>
  4011d7:	b8 67 00 00 00       	mov    $0x67,%eax
  4011dc:	eb 0a                	jmp    4011e8 <phase_3+0x13d>
  4011de:	e8 01 07 00 00       	callq  4018e4 <explode_bomb>
  4011e3:	b8 67 00 00 00       	mov    $0x67,%eax
  4011e8:	3a 44 24 07          	cmp    0x7(%rsp),%al
  4011ec:	74 05                	je     4011f3 <phase_3+0x148>
  4011ee:	e8 f1 06 00 00       	callq  4018e4 <explode_bomb>
  4011f3:	48 83 c4 18          	add    $0x18,%rsp
  4011f7:	c3                   	retq   

00000000004011f8 <func4>:
  4011f8:	53                   	push   %rbx
  4011f9:	89 fb                	mov    %edi,%ebx
  4011fb:	b8 01 00 00 00       	mov    $0x1,%eax
  401200:	83 ff 01             	cmp    $0x1,%edi
  401203:	7e 0b                	jle    401210 <func4+0x18>
  401205:	8d 7f ff             	lea    -0x1(%rdi),%edi
  401208:	e8 eb ff ff ff       	callq  4011f8 <func4>
  40120d:	0f af c3             	imul   %ebx,%eax
  401210:	5b                   	pop    %rbx
  401211:	c3                   	retq   

0000000000401212 <phase_4>:
  401212:	48 83 ec 18          	sub    $0x18,%rsp
  401216:	48 8d 54 24 0c       	lea    0xc(%rsp),%rdx
  40121b:	be 7c 1d 40 00       	mov    $0x401d7c,%esi
  401220:	b8 00 00 00 00       	mov    $0x0,%eax
  401225:	e8 c6 f9 ff ff       	callq  400bf0 <__isoc99_sscanf@plt>
  40122a:	83 f8 01             	cmp    $0x1,%eax
  40122d:	75 07                	jne    401236 <phase_4+0x24>
  40122f:	83 7c 24 0c 00       	cmpl   $0x0,0xc(%rsp)
  401234:	7f 05                	jg     40123b <phase_4+0x29>
  401236:	e8 a9 06 00 00       	callq  4018e4 <explode_bomb>
  40123b:	8b 7c 24 0c          	mov    0xc(%rsp),%edi
  40123f:	e8 b4 ff ff ff       	callq  4011f8 <func4>
  401244:	3d b0 13 00 00       	cmp    $0x13b0,%eax
  401249:	74 05                	je     401250 <phase_4+0x3e>
  40124b:	e8 94 06 00 00       	callq  4018e4 <explode_bomb>
  401250:	48 83 c4 18          	add    $0x18,%rsp
  401254:	c3                   	retq   

0000000000401255 <phase_5>:
  401255:	53                   	push   %rbx
  401256:	48 83 ec 20          	sub    $0x20,%rsp
  40125a:	48 89 fb             	mov    %rdi,%rbx
  40125d:	e8 0f 02 00 00       	callq  401471 <string_length>
  401262:	83 f8 06             	cmp    $0x6,%eax
  401265:	74 4d                	je     4012b4 <phase_5+0x5f>
  401267:	e8 78 06 00 00       	callq  4018e4 <explode_bomb>
  40126c:	0f 1f 40 00          	nopl   0x0(%rax)
  401270:	eb 42                	jmp    4012b4 <phase_5+0x5f>
  401272:	0f b6 0c 03          	movzbl (%rbx,%rax,1),%ecx
  401276:	88 0c 24             	mov    %cl,(%rsp)
  401279:	48 8b 14 24          	mov    (%rsp),%rdx
  40127d:	83 e2 0f             	and    $0xf,%edx
  401280:	0f b6 92 d0 1d 40 00 	movzbl 0x401dd0(%rdx),%edx
  401287:	88 54 04 10          	mov    %dl,0x10(%rsp,%rax,1)
  40128b:	48 83 c0 01          	add    $0x1,%rax
  40128f:	48 83 f8 06          	cmp    $0x6,%rax
  401293:	75 dd                	jne    401272 <phase_5+0x1d>
  401295:	c6 44 24 16 00       	movb   $0x0,0x16(%rsp)
  40129a:	be 7f 1d 40 00       	mov    $0x401d7f,%esi
  40129f:	48 8d 7c 24 10       	lea    0x10(%rsp),%rdi
  4012a4:	e8 e5 01 00 00       	callq  40148e <strings_not_equal>
  4012a9:	85 c0                	test   %eax,%eax
  4012ab:	74 0e                	je     4012bb <phase_5+0x66>
  4012ad:	e8 32 06 00 00       	callq  4018e4 <explode_bomb>
  4012b2:	eb 07                	jmp    4012bb <phase_5+0x66>
  4012b4:	b8 00 00 00 00       	mov    $0x0,%eax
  4012b9:	eb b7                	jmp    401272 <phase_5+0x1d>
  4012bb:	48 83 c4 20          	add    $0x20,%rsp
  4012bf:	5b                   	pop    %rbx
  4012c0:	c3                   	retq   

00000000004012c1 <fun6>:
  4012c1:	48 89 f8             	mov    %rdi,%rax
  4012c4:	4c 8b 47 08          	mov    0x8(%rdi),%r8
  4012c8:	48 c7 47 08 00 00 00 	movq   $0x0,0x8(%rdi)
  4012cf:	00 
  4012d0:	4d 85 c0             	test   %r8,%r8
  4012d3:	75 48                	jne    40131d <fun6+0x5c>
  4012d5:	f3 c3                	repz retq 
  4012d7:	48 89 d1             	mov    %rdx,%rcx
  4012da:	48 8b 51 08          	mov    0x8(%rcx),%rdx
  4012de:	48 85 d2             	test   %rdx,%rdx
  4012e1:	74 09                	je     4012ec <fun6+0x2b>
  4012e3:	39 32                	cmp    %esi,(%rdx)
  4012e5:	7f f0                	jg     4012d7 <fun6+0x16>
  4012e7:	48 89 d6             	mov    %rdx,%rsi
  4012ea:	eb 03                	jmp    4012ef <fun6+0x2e>
  4012ec:	48 89 d6             	mov    %rdx,%rsi
  4012ef:	48 39 ce             	cmp    %rcx,%rsi
  4012f2:	74 06                	je     4012fa <fun6+0x39>
  4012f4:	4c 89 41 08          	mov    %r8,0x8(%rcx)
  4012f8:	eb 13                	jmp    40130d <fun6+0x4c>
  4012fa:	4c 89 c0             	mov    %r8,%rax
  4012fd:	eb 0e                	jmp    40130d <fun6+0x4c>
  4012ff:	48 89 c2             	mov    %rax,%rdx
  401302:	4c 89 c0             	mov    %r8,%rax
  401305:	eb 06                	jmp    40130d <fun6+0x4c>
  401307:	48 89 c2             	mov    %rax,%rdx
  40130a:	4c 89 c0             	mov    %r8,%rax
  40130d:	49 8b 48 08          	mov    0x8(%r8),%rcx
  401311:	49 89 50 08          	mov    %rdx,0x8(%r8)
  401315:	48 85 c9             	test   %rcx,%rcx
  401318:	74 14                	je     40132e <fun6+0x6d>
  40131a:	49 89 c8             	mov    %rcx,%r8
  40131d:	48 85 c0             	test   %rax,%rax
  401320:	74 dd                	je     4012ff <fun6+0x3e>
  401322:	41 8b 30             	mov    (%r8),%esi
  401325:	39 30                	cmp    %esi,(%rax)
  401327:	7e de                	jle    401307 <fun6+0x46>
  401329:	48 89 c1             	mov    %rax,%rcx
  40132c:	eb ac                	jmp    4012da <fun6+0x19>
  40132e:	66 90                	xchg   %ax,%ax
  401330:	f3 c3                	repz retq 

0000000000401332 <phase_6>:
  401332:	53                   	push   %rbx
  401333:	ba 0a 00 00 00       	mov    $0xa,%edx
  401338:	be 00 00 00 00       	mov    $0x0,%esi
  40133d:	e8 9e f9 ff ff       	callq  400ce0 <strtol@plt>
  401342:	48 89 c3             	mov    %rax,%rbx
  401345:	bf 20 35 60 00       	mov    $0x603520,%edi
  40134a:	e8 72 ff ff ff       	callq  4012c1 <fun6>
  40134f:	ba 08 00 00 00       	mov    $0x8,%edx
  401354:	48 8b 40 08          	mov    0x8(%rax),%rax
  401358:	83 ea 01             	sub    $0x1,%edx
  40135b:	75 f7                	jne    401354 <phase_6+0x22>
  40135d:	39 18                	cmp    %ebx,(%rax)
  40135f:	74 05                	je     401366 <phase_6+0x34>
  401361:	e8 7e 05 00 00       	callq  4018e4 <explode_bomb>
  401366:	5b                   	pop    %rbx
  401367:	c3                   	retq   

0000000000401368 <fun7>:
  401368:	48 83 ec 08          	sub    $0x8,%rsp
  40136c:	48 85 ff             	test   %rdi,%rdi
  40136f:	74 2b                	je     40139c <fun7+0x34>
  401371:	8b 17                	mov    (%rdi),%edx
  401373:	39 f2                	cmp    %esi,%edx
  401375:	7e 0d                	jle    401384 <fun7+0x1c>
  401377:	48 8b 7f 08          	mov    0x8(%rdi),%rdi
  40137b:	e8 e8 ff ff ff       	callq  401368 <fun7>
  401380:	01 c0                	add    %eax,%eax
  401382:	eb 1d                	jmp    4013a1 <fun7+0x39>
  401384:	b8 00 00 00 00       	mov    $0x0,%eax
  401389:	39 f2                	cmp    %esi,%edx
  40138b:	74 14                	je     4013a1 <fun7+0x39>
  40138d:	48 8b 7f 10          	mov    0x10(%rdi),%rdi
  401391:	e8 d2 ff ff ff       	callq  401368 <fun7>
  401396:	8d 44 00 01          	lea    0x1(%rax,%rax,1),%eax
  40139a:	eb 05                	jmp    4013a1 <fun7+0x39>
  40139c:	b8 ff ff ff ff       	mov    $0xffffffff,%eax
  4013a1:	48 83 c4 08          	add    $0x8,%rsp
  4013a5:	c3                   	retq   

00000000004013a6 <secret_phase>:
  4013a6:	53                   	push   %rbx
  4013a7:	e8 b0 05 00 00       	callq  40195c <read_line>
  4013ac:	ba 0a 00 00 00       	mov    $0xa,%edx
  4013b1:	be 00 00 00 00       	mov    $0x0,%esi
  4013b6:	48 89 c7             	mov    %rax,%rdi
  4013b9:	e8 22 f9 ff ff       	callq  400ce0 <strtol@plt>
  4013be:	48 89 c3             	mov    %rax,%rbx
  4013c1:	8d 40 ff             	lea    -0x1(%rax),%eax
  4013c4:	3d e8 03 00 00       	cmp    $0x3e8,%eax
  4013c9:	76 05                	jbe    4013d0 <secret_phase+0x2a>
  4013cb:	e8 14 05 00 00       	callq  4018e4 <explode_bomb>
  4013d0:	89 de                	mov    %ebx,%esi
  4013d2:	bf 40 33 60 00       	mov    $0x603340,%edi
  4013d7:	e8 8c ff ff ff       	callq  401368 <fun7>
  4013dc:	85 c0                	test   %eax,%eax
  4013de:	74 05                	je     4013e5 <secret_phase+0x3f>
  4013e0:	e8 ff 04 00 00       	callq  4018e4 <explode_bomb>
  4013e5:	bf 50 1d 40 00       	mov    $0x401d50,%edi
  4013ea:	e8 f1 f7 ff ff       	callq  400be0 <puts@plt>
  4013ef:	e8 4e 06 00 00       	callq  401a42 <phase_defused>
  4013f4:	5b                   	pop    %rbx
  4013f5:	c3                   	retq   
  4013f6:	90                   	nop
  4013f7:	90                   	nop
  4013f8:	90                   	nop
  4013f9:	90                   	nop
  4013fa:	90                   	nop
  4013fb:	90                   	nop
  4013fc:	90                   	nop
  4013fd:	90                   	nop
  4013fe:	90                   	nop
  4013ff:	90                   	nop

0000000000401400 <sig_handler>:
  401400:	48 83 ec 08          	sub    $0x8,%rsp
  401404:	bf e0 1d 40 00       	mov    $0x401de0,%edi
  401409:	e8 d2 f7 ff ff       	callq  400be0 <puts@plt>
  40140e:	bf 03 00 00 00       	mov    $0x3,%edi
  401413:	e8 a8 f8 ff ff       	callq  400cc0 <sleep@plt>
  401418:	bf 18 1f 40 00       	mov    $0x401f18,%edi
  40141d:	b8 00 00 00 00       	mov    $0x0,%eax
  401422:	e8 89 f7 ff ff       	callq  400bb0 <printf@plt>
  401427:	48 8b 3d a2 2d 20 00 	mov    0x202da2(%rip),%rdi        # 6041d0 <stdout@@GLIBC_2.2.5>
  40142e:	e8 6d f9 ff ff       	callq  400da0 <fflush@plt>
  401433:	bf 01 00 00 00       	mov    $0x1,%edi
  401438:	e8 83 f8 ff ff       	callq  400cc0 <sleep@plt>
  40143d:	bf 20 1f 40 00       	mov    $0x401f20,%edi
  401442:	e8 99 f7 ff ff       	callq  400be0 <puts@plt>
  401447:	bf 10 00 00 00       	mov    $0x10,%edi
  40144c:	e8 af f7 ff ff       	callq  400c00 <exit@plt>

0000000000401451 <invalid_phase>:
  401451:	48 83 ec 08          	sub    $0x8,%rsp
  401455:	48 89 fe             	mov    %rdi,%rsi
  401458:	bf 28 1f 40 00       	mov    $0x401f28,%edi
  40145d:	b8 00 00 00 00       	mov    $0x0,%eax
  401462:	e8 49 f7 ff ff       	callq  400bb0 <printf@plt>
  401467:	bf 08 00 00 00       	mov    $0x8,%edi
  40146c:	e8 8f f7 ff ff       	callq  400c00 <exit@plt>

0000000000401471 <string_length>:
  401471:	80 3f 00             	cmpb   $0x0,(%rdi)
  401474:	74 12                	je     401488 <string_length+0x17>
  401476:	48 89 fa             	mov    %rdi,%rdx
  401479:	48 83 c2 01          	add    $0x1,%rdx
  40147d:	89 d0                	mov    %edx,%eax
  40147f:	29 f8                	sub    %edi,%eax
  401481:	80 3a 00             	cmpb   $0x0,(%rdx)
  401484:	75 f3                	jne    401479 <string_length+0x8>
  401486:	f3 c3                	repz retq 
  401488:	b8 00 00 00 00       	mov    $0x0,%eax
  40148d:	c3                   	retq   

000000000040148e <strings_not_equal>:
  40148e:	41 54                	push   %r12
  401490:	55                   	push   %rbp
  401491:	53                   	push   %rbx
  401492:	48 89 fb             	mov    %rdi,%rbx
  401495:	48 89 f5             	mov    %rsi,%rbp
  401498:	e8 d4 ff ff ff       	callq  401471 <string_length>
  40149d:	41 89 c4             	mov    %eax,%r12d
  4014a0:	48 89 ef             	mov    %rbp,%rdi
  4014a3:	e8 c9 ff ff ff       	callq  401471 <string_length>
  4014a8:	ba 01 00 00 00       	mov    $0x1,%edx
  4014ad:	41 39 c4             	cmp    %eax,%r12d
  4014b0:	75 3e                	jne    4014f0 <strings_not_equal+0x62>
  4014b2:	0f b6 03             	movzbl (%rbx),%eax
  4014b5:	84 c0                	test   %al,%al
  4014b7:	74 24                	je     4014dd <strings_not_equal+0x4f>
  4014b9:	3a 45 00             	cmp    0x0(%rbp),%al
  4014bc:	74 09                	je     4014c7 <strings_not_equal+0x39>
  4014be:	66 90                	xchg   %ax,%ax
  4014c0:	eb 22                	jmp    4014e4 <strings_not_equal+0x56>
  4014c2:	3a 45 00             	cmp    0x0(%rbp),%al
  4014c5:	75 24                	jne    4014eb <strings_not_equal+0x5d>
  4014c7:	48 83 c3 01          	add    $0x1,%rbx
  4014cb:	48 83 c5 01          	add    $0x1,%rbp
  4014cf:	0f b6 03             	movzbl (%rbx),%eax
  4014d2:	84 c0                	test   %al,%al
  4014d4:	75 ec                	jne    4014c2 <strings_not_equal+0x34>
  4014d6:	ba 00 00 00 00       	mov    $0x0,%edx
  4014db:	eb 13                	jmp    4014f0 <strings_not_equal+0x62>
  4014dd:	ba 00 00 00 00       	mov    $0x0,%edx
  4014e2:	eb 0c                	jmp    4014f0 <strings_not_equal+0x62>
  4014e4:	ba 01 00 00 00       	mov    $0x1,%edx
  4014e9:	eb 05                	jmp    4014f0 <strings_not_equal+0x62>
  4014eb:	ba 01 00 00 00       	mov    $0x1,%edx
  4014f0:	89 d0                	mov    %edx,%eax
  4014f2:	5b                   	pop    %rbx
  4014f3:	5d                   	pop    %rbp
  4014f4:	41 5c                	pop    %r12
  4014f6:	c3                   	retq   

00000000004014f7 <open_clientfd>:
  4014f7:	41 54                	push   %r12
  4014f9:	55                   	push   %rbp
  4014fa:	53                   	push   %rbx
  4014fb:	48 83 ec 10          	sub    $0x10,%rsp
  4014ff:	49 89 fc             	mov    %rdi,%r12
  401502:	89 f5                	mov    %esi,%ebp
  401504:	ba 00 00 00 00       	mov    $0x0,%edx
  401509:	be 01 00 00 00       	mov    $0x1,%esi
  40150e:	bf 02 00 00 00       	mov    $0x2,%edi
  401513:	e8 18 f8 ff ff       	callq  400d30 <socket@plt>
  401518:	89 c3                	mov    %eax,%ebx
  40151a:	85 c0                	test   %eax,%eax
  40151c:	79 14                	jns    401532 <open_clientfd+0x3b>
  40151e:	bf 39 1f 40 00       	mov    $0x401f39,%edi
  401523:	e8 b8 f6 ff ff       	callq  400be0 <puts@plt>
  401528:	bf 08 00 00 00       	mov    $0x8,%edi
  40152d:	e8 ce f6 ff ff       	callq  400c00 <exit@plt>
  401532:	4c 89 e7             	mov    %r12,%rdi
  401535:	e8 96 f6 ff ff       	callq  400bd0 <gethostbyname@plt>
  40153a:	48 85 c0             	test   %rax,%rax
  40153d:	75 14                	jne    401553 <open_clientfd+0x5c>
  40153f:	bf 47 1f 40 00       	mov    $0x401f47,%edi
  401544:	e8 97 f6 ff ff       	callq  400be0 <puts@plt>
  401549:	bf 08 00 00 00       	mov    $0x8,%edi
  40154e:	e8 ad f6 ff ff       	callq  400c00 <exit@plt>
  401553:	48 c7 04 24 00 00 00 	movq   $0x0,(%rsp)
  40155a:	00 
  40155b:	48 c7 44 24 08 00 00 	movq   $0x0,0x8(%rsp)
  401562:	00 00 
  401564:	66 c7 04 24 02 00    	movw   $0x2,(%rsp)
  40156a:	48 63 50 14          	movslq 0x14(%rax),%rdx
  40156e:	48 8d 74 24 04       	lea    0x4(%rsp),%rsi
  401573:	48 8b 40 18          	mov    0x18(%rax),%rax
  401577:	48 8b 38             	mov    (%rax),%rdi
  40157a:	e8 01 f7 ff ff       	callq  400c80 <bcopy@plt>
  40157f:	89 ee                	mov    %ebp,%esi
  401581:	66 c1 ce 08          	ror    $0x8,%si
  401585:	66 89 74 24 02       	mov    %si,0x2(%rsp)
  40158a:	ba 10 00 00 00       	mov    $0x10,%edx
  40158f:	48 89 e6             	mov    %rsp,%rsi
  401592:	89 df                	mov    %ebx,%edi
  401594:	e8 57 f7 ff ff       	callq  400cf0 <connect@plt>
  401599:	85 c0                	test   %eax,%eax
  40159b:	79 14                	jns    4015b1 <open_clientfd+0xba>
  40159d:	bf 55 1f 40 00       	mov    $0x401f55,%edi
  4015a2:	e8 39 f6 ff ff       	callq  400be0 <puts@plt>
  4015a7:	bf 08 00 00 00       	mov    $0x8,%edi
  4015ac:	e8 4f f6 ff ff       	callq  400c00 <exit@plt>
  4015b1:	89 d8                	mov    %ebx,%eax
  4015b3:	48 83 c4 10          	add    $0x10,%rsp
  4015b7:	5b                   	pop    %rbx
  4015b8:	5d                   	pop    %rbp
  4015b9:	41 5c                	pop    %r12
  4015bb:	c3                   	retq   

00000000004015bc <initialize_bomb>:
  4015bc:	53                   	push   %rbx
  4015bd:	48 83 ec 40          	sub    $0x40,%rsp
  4015c1:	be 00 14 40 00       	mov    $0x401400,%esi
  4015c6:	bf 02 00 00 00       	mov    $0x2,%edi
  4015cb:	e8 50 f7 ff ff       	callq  400d20 <signal@plt>
  4015d0:	be 40 00 00 00       	mov    $0x40,%esi
  4015d5:	48 89 e7             	mov    %rsp,%rdi
  4015d8:	e8 23 f7 ff ff       	callq  400d00 <gethostname@plt>
  4015dd:	85 c0                	test   %eax,%eax
  4015df:	75 13                	jne    4015f4 <initialize_bomb+0x38>
  4015e1:	48 8b 3d f8 23 20 00 	mov    0x2023f8(%rip),%rdi        # 6039e0 <host_table>
  4015e8:	bb e8 39 60 00       	mov    $0x6039e8,%ebx
  4015ed:	48 85 ff             	test   %rdi,%rdi
  4015f0:	75 16                	jne    401608 <initialize_bomb+0x4c>
  4015f2:	eb 2d                	jmp    401621 <initialize_bomb+0x65>
  4015f4:	bf 63 1f 40 00       	mov    $0x401f63,%edi
  4015f9:	e8 e2 f5 ff ff       	callq  400be0 <puts@plt>
  4015fe:	bf 08 00 00 00       	mov    $0x8,%edi
  401603:	e8 f8 f5 ff ff       	callq  400c00 <exit@plt>
  401608:	48 89 e6             	mov    %rsp,%rsi
  40160b:	e8 00 f6 ff ff       	callq  400c10 <strcasecmp@plt>
  401610:	85 c0                	test   %eax,%eax
  401612:	74 21                	je     401635 <initialize_bomb+0x79>
  401614:	48 83 c3 08          	add    $0x8,%rbx
  401618:	48 8b 7b f8          	mov    -0x8(%rbx),%rdi
  40161c:	48 85 ff             	test   %rdi,%rdi
  40161f:	75 e7                	jne    401608 <initialize_bomb+0x4c>
  401621:	bf 70 1f 40 00       	mov    $0x401f70,%edi
  401626:	e8 b5 f5 ff ff       	callq  400be0 <puts@plt>
  40162b:	bf 08 00 00 00       	mov    $0x8,%edi
  401630:	e8 cb f5 ff ff       	callq  400c00 <exit@plt>
  401635:	be 50 00 00 00       	mov    $0x50,%esi
  40163a:	bf 7e 1f 40 00       	mov    $0x401f7e,%edi
  40163f:	e8 b3 fe ff ff       	callq  4014f7 <open_clientfd>
  401644:	89 c7                	mov    %eax,%edi
  401646:	e8 75 f5 ff ff       	callq  400bc0 <close@plt>
  40164b:	48 83 c4 40          	add    $0x40,%rsp
  40164f:	5b                   	pop    %rbx
  401650:	c3                   	retq   

0000000000401651 <blank_line>:
  401651:	55                   	push   %rbp
  401652:	53                   	push   %rbx
  401653:	48 83 ec 08          	sub    $0x8,%rsp
  401657:	48 89 fb             	mov    %rdi,%rbx
  40165a:	eb 17                	jmp    401673 <blank_line+0x22>
  40165c:	e8 2f f6 ff ff       	callq  400c90 <__ctype_b_loc@plt>
  401661:	48 83 c3 01          	add    $0x1,%rbx
  401665:	48 0f be ed          	movsbq %bpl,%rbp
  401669:	48 8b 00             	mov    (%rax),%rax
  40166c:	f6 44 68 01 20       	testb  $0x20,0x1(%rax,%rbp,2)
  401671:	74 0f                	je     401682 <blank_line+0x31>
  401673:	0f b6 2b             	movzbl (%rbx),%ebp
  401676:	40 84 ed             	test   %bpl,%bpl
  401679:	75 e1                	jne    40165c <blank_line+0xb>
  40167b:	b8 01 00 00 00       	mov    $0x1,%eax
  401680:	eb 05                	jmp    401687 <blank_line+0x36>
  401682:	b8 00 00 00 00       	mov    $0x0,%eax
  401687:	48 83 c4 08          	add    $0x8,%rsp
  40168b:	5b                   	pop    %rbx
  40168c:	5d                   	pop    %rbp
  40168d:	c3                   	retq   

000000000040168e <skip>:
  40168e:	53                   	push   %rbx
  40168f:	48 63 3d 52 2b 20 00 	movslq 0x202b52(%rip),%rdi        # 6041e8 <num_input_strings>
  401696:	48 69 ff fa 00 00 00 	imul   $0xfa,%rdi,%rdi
  40169d:	48 81 c7 00 42 60 00 	add    $0x604200,%rdi
  4016a4:	48 8b 15 45 2b 20 00 	mov    0x202b45(%rip),%rdx        # 6041f0 <infile>
  4016ab:	be fa 00 00 00       	mov    $0xfa,%esi
  4016b0:	e8 ab f5 ff ff       	callq  400c60 <fgets@plt>
  4016b5:	48 89 c3             	mov    %rax,%rbx
  4016b8:	48 85 c0             	test   %rax,%rax
  4016bb:	74 0c                	je     4016c9 <skip+0x3b>
  4016bd:	48 89 c7             	mov    %rax,%rdi
  4016c0:	e8 8c ff ff ff       	callq  401651 <blank_line>
  4016c5:	85 c0                	test   %eax,%eax
  4016c7:	75 c6                	jne    40168f <skip+0x1>
  4016c9:	48 89 d8             	mov    %rbx,%rax
  4016cc:	5b                   	pop    %rbx
  4016cd:	c3                   	retq   

00000000004016ce <send_msg>:
  4016ce:	41 54                	push   %r12
  4016d0:	55                   	push   %rbp
  4016d1:	53                   	push   %rbx
  4016d2:	48 81 ec 10 01 00 00 	sub    $0x110,%rsp
  4016d9:	89 fb                	mov    %edi,%ebx
  4016db:	bf 00 00 00 00       	mov    $0x0,%edi
  4016e0:	e8 5b f5 ff ff       	callq  400c40 <dup@plt>
  4016e5:	41 89 c4             	mov    %eax,%r12d
  4016e8:	83 f8 ff             	cmp    $0xffffffff,%eax
  4016eb:	75 14                	jne    401701 <send_msg+0x33>
  4016ed:	bf 9e 1f 40 00       	mov    $0x401f9e,%edi
  4016f2:	e8 e9 f4 ff ff       	callq  400be0 <puts@plt>
  4016f7:	bf 08 00 00 00       	mov    $0x8,%edi
  4016fc:	e8 ff f4 ff ff       	callq  400c00 <exit@plt>
  401701:	bf 00 00 00 00       	mov    $0x0,%edi
  401706:	e8 b5 f4 ff ff       	callq  400bc0 <close@plt>
  40170b:	83 f8 ff             	cmp    $0xffffffff,%eax
  40170e:	75 14                	jne    401724 <send_msg+0x56>
  401710:	bf b2 1f 40 00       	mov    $0x401fb2,%edi
  401715:	e8 c6 f4 ff ff       	callq  400be0 <puts@plt>
  40171a:	bf 08 00 00 00       	mov    $0x8,%edi
  40171f:	e8 dc f4 ff ff       	callq  400c00 <exit@plt>
  401724:	e8 e7 f5 ff ff       	callq  400d10 <tmpfile@plt>
  401729:	48 89 c5             	mov    %rax,%rbp
  40172c:	48 85 c0             	test   %rax,%rax
  40172f:	75 14                	jne    401745 <send_msg+0x77>
  401731:	bf c5 1f 40 00       	mov    $0x401fc5,%edi
  401736:	e8 a5 f4 ff ff       	callq  400be0 <puts@plt>
  40173b:	bf 08 00 00 00       	mov    $0x8,%edi
  401740:	e8 bb f4 ff ff       	callq  400c00 <exit@plt>
  401745:	48 89 c1             	mov    %rax,%rcx
  401748:	ba 1b 00 00 00       	mov    $0x1b,%edx
  40174d:	be 01 00 00 00       	mov    $0x1,%esi
  401752:	bf da 1f 40 00       	mov    $0x401fda,%edi
  401757:	e8 24 f6 ff ff       	callq  400d80 <fwrite@plt>
  40175c:	48 89 ee             	mov    %rbp,%rsi
  40175f:	bf 0a 00 00 00       	mov    $0xa,%edi
  401764:	e8 07 f5 ff ff       	callq  400c70 <fputc@plt>
  401769:	bf 00 00 00 00       	mov    $0x0,%edi
  40176e:	e8 dd f5 ff ff       	callq  400d50 <cuserid@plt>
  401773:	48 85 c0             	test   %rax,%rax
  401776:	75 16                	jne    40178e <send_msg+0xc0>
  401778:	c7 44 24 10 6e 6f 62 	movl   $0x6f626f6e,0x10(%rsp)
  40177f:	6f 
  401780:	66 c7 44 24 14 64 79 	movw   $0x7964,0x14(%rsp)
  401787:	c6 44 24 16 00       	movb   $0x0,0x16(%rsp)
  40178c:	eb 0d                	jmp    40179b <send_msg+0xcd>
  40178e:	48 89 c6             	mov    %rax,%rsi
  401791:	48 8d 7c 24 10       	lea    0x10(%rsp),%rdi
  401796:	e8 c5 f5 ff ff       	callq  400d60 <strcpy@plt>
  40179b:	85 db                	test   %ebx,%ebx
  40179d:	b8 8d 1f 40 00       	mov    $0x401f8d,%eax
  4017a2:	41 b9 95 1f 40 00    	mov    $0x401f95,%r9d
  4017a8:	4c 0f 45 c8          	cmovne %rax,%r9
  4017ac:	8b 05 36 2a 20 00    	mov    0x202a36(%rip),%eax        # 6041e8 <num_input_strings>
  4017b2:	89 04 24             	mov    %eax,(%rsp)
  4017b5:	4c 8d 44 24 10       	lea    0x10(%rsp),%r8
  4017ba:	8b 0d 00 22 20 00    	mov    0x202200(%rip),%ecx        # 6039c0 <bomb_id>
  4017c0:	ba c0 35 60 00       	mov    $0x6035c0,%edx
  4017c5:	be f6 1f 40 00       	mov    $0x401ff6,%esi
  4017ca:	48 89 ef             	mov    %rbp,%rdi
  4017cd:	b8 00 00 00 00       	mov    $0x0,%eax
  4017d2:	e8 b9 f5 ff ff       	callq  400d90 <fprintf@plt>
  4017d7:	83 3d 0a 2a 20 00 00 	cmpl   $0x0,0x202a0a(%rip)        # 6041e8 <num_input_strings>
  4017de:	7e 4a                	jle    40182a <send_msg+0x15c>
  4017e0:	bb 00 00 00 00       	mov    $0x0,%ebx
  4017e5:	48 63 d3             	movslq %ebx,%rdx
  4017e8:	48 69 d2 fa 00 00 00 	imul   $0xfa,%rdx,%rdx
  4017ef:	48 81 c2 00 42 60 00 	add    $0x604200,%rdx
  4017f6:	83 c3 01             	add    $0x1,%ebx
  4017f9:	48 89 14 24          	mov    %rdx,(%rsp)
  4017fd:	41 89 d9             	mov    %ebx,%r9d
  401800:	4c 8d 44 24 10       	lea    0x10(%rsp),%r8
  401805:	8b 0d b5 21 20 00    	mov    0x2021b5(%rip),%ecx        # 6039c0 <bomb_id>
  40180b:	ba c0 35 60 00       	mov    $0x6035c0,%edx
  401810:	be 12 20 40 00       	mov    $0x402012,%esi
  401815:	48 89 ef             	mov    %rbp,%rdi
  401818:	b8 00 00 00 00       	mov    $0x0,%eax
  40181d:	e8 6e f5 ff ff       	callq  400d90 <fprintf@plt>
  401822:	39 1d c0 29 20 00    	cmp    %ebx,0x2029c0(%rip)        # 6041e8 <num_input_strings>
  401828:	7f bb                	jg     4017e5 <send_msg+0x117>
  40182a:	48 89 ef             	mov    %rbp,%rdi
  40182d:	e8 9e f4 ff ff       	callq  400cd0 <rewind@plt>
  401832:	41 b8 bc 2a 40 00    	mov    $0x402abc,%r8d
  401838:	b9 2e 20 40 00       	mov    $0x40202e,%ecx
  40183d:	ba 33 20 40 00       	mov    $0x402033,%edx
  401842:	be 4a 20 40 00       	mov    $0x40204a,%esi
  401847:	bf a0 55 60 00       	mov    $0x6055a0,%edi
  40184c:	b8 00 00 00 00       	mov    $0x0,%eax
  401851:	e8 4a f4 ff ff       	callq  400ca0 <sprintf@plt>
  401856:	bf a0 55 60 00       	mov    $0x6055a0,%edi
  40185b:	e8 f0 f3 ff ff       	callq  400c50 <system@plt>
  401860:	85 c0                	test   %eax,%eax
  401862:	74 14                	je     401878 <send_msg+0x1aa>
  401864:	bf 53 20 40 00       	mov    $0x402053,%edi
  401869:	e8 72 f3 ff ff       	callq  400be0 <puts@plt>
  40186e:	bf 08 00 00 00       	mov    $0x8,%edi
  401873:	e8 88 f3 ff ff       	callq  400c00 <exit@plt>
  401878:	48 89 ef             	mov    %rbp,%rdi
  40187b:	e8 f0 f4 ff ff       	callq  400d70 <fclose@plt>
  401880:	85 c0                	test   %eax,%eax
  401882:	74 14                	je     401898 <send_msg+0x1ca>
  401884:	bf 6d 20 40 00       	mov    $0x40206d,%edi
  401889:	e8 52 f3 ff ff       	callq  400be0 <puts@plt>
  40188e:	bf 08 00 00 00       	mov    $0x8,%edi
  401893:	e8 68 f3 ff ff       	callq  400c00 <exit@plt>
  401898:	44 89 e7             	mov    %r12d,%edi
  40189b:	e8 a0 f3 ff ff       	callq  400c40 <dup@plt>
  4018a0:	85 c0                	test   %eax,%eax
  4018a2:	74 14                	je     4018b8 <send_msg+0x1ea>
  4018a4:	bf 86 20 40 00       	mov    $0x402086,%edi
  4018a9:	e8 32 f3 ff ff       	callq  400be0 <puts@plt>
  4018ae:	bf 08 00 00 00       	mov    $0x8,%edi
  4018b3:	e8 48 f3 ff ff       	callq  400c00 <exit@plt>
  4018b8:	44 89 e7             	mov    %r12d,%edi
  4018bb:	e8 00 f3 ff ff       	callq  400bc0 <close@plt>
  4018c0:	85 c0                	test   %eax,%eax
  4018c2:	74 14                	je     4018d8 <send_msg+0x20a>
  4018c4:	bf a1 20 40 00       	mov    $0x4020a1,%edi
  4018c9:	e8 12 f3 ff ff       	callq  400be0 <puts@plt>
  4018ce:	bf 08 00 00 00       	mov    $0x8,%edi
  4018d3:	e8 28 f3 ff ff       	callq  400c00 <exit@plt>
  4018d8:	48 81 c4 10 01 00 00 	add    $0x110,%rsp
  4018df:	5b                   	pop    %rbx
  4018e0:	5d                   	pop    %rbp
  4018e1:	41 5c                	pop    %r12
  4018e3:	c3                   	retq   

00000000004018e4 <explode_bomb>:
  4018e4:	48 83 ec 08          	sub    $0x8,%rsp
  4018e8:	bf b8 20 40 00       	mov    $0x4020b8,%edi
  4018ed:	e8 ee f2 ff ff       	callq  400be0 <puts@plt>
  4018f2:	bf c1 20 40 00       	mov    $0x4020c1,%edi
  4018f7:	e8 e4 f2 ff ff       	callq  400be0 <puts@plt>
  4018fc:	bf 00 00 00 00       	mov    $0x0,%edi
  401901:	e8 c8 fd ff ff       	callq  4016ce <send_msg>
  401906:	bf 18 1e 40 00       	mov    $0x401e18,%edi
  40190b:	e8 d0 f2 ff ff       	callq  400be0 <puts@plt>
  401910:	bf 08 00 00 00       	mov    $0x8,%edi
  401915:	e8 e6 f2 ff ff       	callq  400c00 <exit@plt>

000000000040191a <read_six_numbers>:
  40191a:	48 83 ec 18          	sub    $0x18,%rsp
  40191e:	48 89 f2             	mov    %rsi,%rdx
  401921:	48 8d 4e 04          	lea    0x4(%rsi),%rcx
  401925:	48 8d 46 14          	lea    0x14(%rsi),%rax
  401929:	48 89 44 24 08       	mov    %rax,0x8(%rsp)
  40192e:	48 8d 46 10          	lea    0x10(%rsi),%rax
  401932:	48 89 04 24          	mov    %rax,(%rsp)
  401936:	4c 8d 4e 0c          	lea    0xc(%rsi),%r9
  40193a:	4c 8d 46 08          	lea    0x8(%rsi),%r8
  40193e:	be d8 20 40 00       	mov    $0x4020d8,%esi
  401943:	b8 00 00 00 00       	mov    $0x0,%eax
  401948:	e8 63 f3 ff ff       	callq  400cb0 <sscanf@plt>
  40194d:	83 f8 05             	cmp    $0x5,%eax
  401950:	7f 05                	jg     401957 <read_six_numbers+0x3d>
  401952:	e8 8d ff ff ff       	callq  4018e4 <explode_bomb>
  401957:	48 83 c4 18          	add    $0x18,%rsp
  40195b:	c3                   	retq   

000000000040195c <read_line>:
  40195c:	48 83 ec 08          	sub    $0x8,%rsp
  401960:	b8 00 00 00 00       	mov    $0x0,%eax
  401965:	e8 24 fd ff ff       	callq  40168e <skip>
  40196a:	48 85 c0             	test   %rax,%rax
  40196d:	75 64                	jne    4019d3 <read_line+0x77>
  40196f:	48 8b 05 4a 28 20 00 	mov    0x20284a(%rip),%rax        # 6041c0 <stdin@@GLIBC_2.2.5>
  401976:	48 39 05 73 28 20 00 	cmp    %rax,0x202873(%rip)        # 6041f0 <infile>
  40197d:	75 0f                	jne    40198e <read_line+0x32>
  40197f:	bf ea 20 40 00       	mov    $0x4020ea,%edi
  401984:	e8 57 f2 ff ff       	callq  400be0 <puts@plt>
  401989:	e8 56 ff ff ff       	callq  4018e4 <explode_bomb>
  40198e:	bf 08 21 40 00       	mov    $0x402108,%edi
  401993:	e8 a8 f3 ff ff       	callq  400d40 <getenv@plt>
  401998:	48 85 c0             	test   %rax,%rax
  40199b:	74 0a                	je     4019a7 <read_line+0x4b>
  40199d:	bf 00 00 00 00       	mov    $0x0,%edi
  4019a2:	e8 59 f2 ff ff       	callq  400c00 <exit@plt>
  4019a7:	48 8b 05 12 28 20 00 	mov    0x202812(%rip),%rax        # 6041c0 <stdin@@GLIBC_2.2.5>
  4019ae:	48 89 05 3b 28 20 00 	mov    %rax,0x20283b(%rip)        # 6041f0 <infile>
  4019b5:	b8 00 00 00 00       	mov    $0x0,%eax
  4019ba:	e8 cf fc ff ff       	callq  40168e <skip>
  4019bf:	48 85 c0             	test   %rax,%rax
  4019c2:	75 0f                	jne    4019d3 <read_line+0x77>
  4019c4:	bf ea 20 40 00       	mov    $0x4020ea,%edi
  4019c9:	e8 12 f2 ff ff       	callq  400be0 <puts@plt>
  4019ce:	e8 11 ff ff ff       	callq  4018e4 <explode_bomb>
  4019d3:	8b 15 0f 28 20 00    	mov    0x20280f(%rip),%edx        # 6041e8 <num_input_strings>
  4019d9:	48 63 f2             	movslq %edx,%rsi
  4019dc:	48 69 f6 fa 00 00 00 	imul   $0xfa,%rsi,%rsi
  4019e3:	48 81 c6 00 42 60 00 	add    $0x604200,%rsi
  4019ea:	48 89 f7             	mov    %rsi,%rdi
  4019ed:	b8 00 00 00 00       	mov    $0x0,%eax
  4019f2:	48 c7 c1 ff ff ff ff 	mov    $0xffffffffffffffff,%rcx
  4019f9:	f2 ae                	repnz scas %es:(%rdi),%al
  4019fb:	48 f7 d1             	not    %rcx
  4019fe:	48 83 e9 01          	sub    $0x1,%rcx
  401a02:	81 f9 f9 00 00 00    	cmp    $0xf9,%ecx
  401a08:	75 0f                	jne    401a19 <read_line+0xbd>
  401a0a:	bf 13 21 40 00       	mov    $0x402113,%edi
  401a0f:	e8 cc f1 ff ff       	callq  400be0 <puts@plt>
  401a14:	e8 cb fe ff ff       	callq  4018e4 <explode_bomb>
  401a19:	83 e9 01             	sub    $0x1,%ecx
  401a1c:	48 63 c9             	movslq %ecx,%rcx
  401a1f:	48 63 c2             	movslq %edx,%rax
  401a22:	48 69 c0 fa 00 00 00 	imul   $0xfa,%rax,%rax
  401a29:	c6 84 01 00 42 60 00 	movb   $0x0,0x604200(%rcx,%rax,1)
  401a30:	00 
  401a31:	83 c2 01             	add    $0x1,%edx
  401a34:	89 15 ae 27 20 00    	mov    %edx,0x2027ae(%rip)        # 6041e8 <num_input_strings>
  401a3a:	48 89 f0             	mov    %rsi,%rax
  401a3d:	48 83 c4 08          	add    $0x8,%rsp
  401a41:	c3                   	retq   

0000000000401a42 <phase_defused>:
  401a42:	48 81 ec 18 01 00 00 	sub    $0x118,%rsp
  401a49:	bf 01 00 00 00       	mov    $0x1,%edi
  401a4e:	e8 7b fc ff ff       	callq  4016ce <send_msg>
  401a53:	83 3d 8e 27 20 00 06 	cmpl   $0x6,0x20278e(%rip)        # 6041e8 <num_input_strings>
  401a5a:	75 68                	jne    401ac4 <phase_defused+0x82>
  401a5c:	48 8d 4c 24 10       	lea    0x10(%rsp),%rcx
  401a61:	48 8d 54 24 0c       	lea    0xc(%rsp),%rdx
  401a66:	be 2e 21 40 00       	mov    $0x40212e,%esi
  401a6b:	bf ee 44 60 00       	mov    $0x6044ee,%edi
  401a70:	b8 00 00 00 00       	mov    $0x0,%eax
  401a75:	e8 36 f2 ff ff       	callq  400cb0 <sscanf@plt>
  401a7a:	83 f8 02             	cmp    $0x2,%eax
  401a7d:	75 31                	jne    401ab0 <phase_defused+0x6e>
  401a7f:	be 34 21 40 00       	mov    $0x402134,%esi
  401a84:	48 8d 7c 24 10       	lea    0x10(%rsp),%rdi
  401a89:	e8 00 fa ff ff       	callq  40148e <strings_not_equal>
  401a8e:	85 c0                	test   %eax,%eax
  401a90:	75 1e                	jne    401ab0 <phase_defused+0x6e>
  401a92:	bf 40 1e 40 00       	mov    $0x401e40,%edi
  401a97:	e8 44 f1 ff ff       	callq  400be0 <puts@plt>
  401a9c:	bf 68 1e 40 00       	mov    $0x401e68,%edi
  401aa1:	e8 3a f1 ff ff       	callq  400be0 <puts@plt>
  401aa6:	b8 00 00 00 00       	mov    $0x0,%eax
  401aab:	e8 f6 f8 ff ff       	callq  4013a6 <secret_phase>
  401ab0:	bf a0 1e 40 00       	mov    $0x401ea0,%edi
  401ab5:	e8 26 f1 ff ff       	callq  400be0 <puts@plt>
  401aba:	bf d0 1e 40 00       	mov    $0x401ed0,%edi
  401abf:	e8 1c f1 ff ff       	callq  400be0 <puts@plt>
  401ac4:	48 81 c4 18 01 00 00 	add    $0x118,%rsp
  401acb:	c3                   	retq   
  401acc:	90                   	nop
  401acd:	90                   	nop
  401ace:	90                   	nop
  401acf:	90                   	nop

0000000000401ad0 <__libc_csu_fini>:
  401ad0:	f3 c3                	repz retq 
  401ad2:	66 66 66 66 66 2e 0f 	data16 data16 data16 data16 nopw %cs:0x0(%rax,%rax,1)
  401ad9:	1f 84 00 00 00 00 00 

0000000000401ae0 <__libc_csu_init>:
  401ae0:	48 89 6c 24 d8       	mov    %rbp,-0x28(%rsp)
  401ae5:	4c 89 64 24 e0       	mov    %r12,-0x20(%rsp)
  401aea:	48 8d 2d 3b 15 20 00 	lea    0x20153b(%rip),%rbp        # 60302c <__init_array_end>
  401af1:	4c 8d 25 34 15 20 00 	lea    0x201534(%rip),%r12        # 60302c <__init_array_end>
  401af8:	4c 89 6c 24 e8       	mov    %r13,-0x18(%rsp)
  401afd:	4c 89 74 24 f0       	mov    %r14,-0x10(%rsp)
  401b02:	4c 89 7c 24 f8       	mov    %r15,-0x8(%rsp)
  401b07:	48 89 5c 24 d0       	mov    %rbx,-0x30(%rsp)
  401b0c:	48 83 ec 38          	sub    $0x38,%rsp
  401b10:	4c 29 e5             	sub    %r12,%rbp
  401b13:	41 89 fd             	mov    %edi,%r13d
  401b16:	49 89 f6             	mov    %rsi,%r14
  401b19:	48 c1 fd 03          	sar    $0x3,%rbp
  401b1d:	49 89 d7             	mov    %rdx,%r15
  401b20:	e8 63 f0 ff ff       	callq  400b88 <_init>
  401b25:	48 85 ed             	test   %rbp,%rbp
  401b28:	74 1c                	je     401b46 <__libc_csu_init+0x66>
  401b2a:	31 db                	xor    %ebx,%ebx
  401b2c:	0f 1f 40 00          	nopl   0x0(%rax)
  401b30:	4c 89 fa             	mov    %r15,%rdx
  401b33:	4c 89 f6             	mov    %r14,%rsi
  401b36:	44 89 ef             	mov    %r13d,%edi
  401b39:	41 ff 14 dc          	callq  *(%r12,%rbx,8)
  401b3d:	48 83 c3 01          	add    $0x1,%rbx
  401b41:	48 39 eb             	cmp    %rbp,%rbx
  401b44:	72 ea                	jb     401b30 <__libc_csu_init+0x50>
  401b46:	48 8b 5c 24 08       	mov    0x8(%rsp),%rbx
  401b4b:	48 8b 6c 24 10       	mov    0x10(%rsp),%rbp
  401b50:	4c 8b 64 24 18       	mov    0x18(%rsp),%r12
  401b55:	4c 8b 6c 24 20       	mov    0x20(%rsp),%r13
  401b5a:	4c 8b 74 24 28       	mov    0x28(%rsp),%r14
  401b5f:	4c 8b 7c 24 30       	mov    0x30(%rsp),%r15
  401b64:	48 83 c4 38          	add    $0x38,%rsp
  401b68:	c3                   	retq   
  401b69:	90                   	nop
  401b6a:	90                   	nop
  401b6b:	90                   	nop
  401b6c:	90                   	nop
  401b6d:	90                   	nop
  401b6e:	90                   	nop
  401b6f:	90                   	nop

0000000000401b70 <__do_global_ctors_aux>:
  401b70:	55                   	push   %rbp
  401b71:	48 89 e5             	mov    %rsp,%rbp
  401b74:	53                   	push   %rbx
  401b75:	bb 30 30 60 00       	mov    $0x603030,%ebx
  401b7a:	48 83 ec 08          	sub    $0x8,%rsp
  401b7e:	48 8b 05 ab 14 20 00 	mov    0x2014ab(%rip),%rax        # 603030 <__CTOR_LIST__>
  401b85:	48 83 f8 ff          	cmp    $0xffffffffffffffff,%rax
  401b89:	74 14                	je     401b9f <__do_global_ctors_aux+0x2f>
  401b8b:	0f 1f 44 00 00       	nopl   0x0(%rax,%rax,1)
  401b90:	48 83 eb 08          	sub    $0x8,%rbx
  401b94:	ff d0                	callq  *%rax
  401b96:	48 8b 03             	mov    (%rbx),%rax
  401b99:	48 83 f8 ff          	cmp    $0xffffffffffffffff,%rax
  401b9d:	75 f1                	jne    401b90 <__do_global_ctors_aux+0x20>
  401b9f:	48 83 c4 08          	add    $0x8,%rsp
  401ba3:	5b                   	pop    %rbx
  401ba4:	5d                   	pop    %rbp
  401ba5:	c3                   	retq   
  401ba6:	90                   	nop
  401ba7:	90                   	nop

Disassembly of section .fini:

0000000000401ba8 <_fini>:
  401ba8:	48 83 ec 08          	sub    $0x8,%rsp
  401bac:	e8 bf f2 ff ff       	callq  400e70 <__do_global_dtors_aux>
  401bb1:	48 83 c4 08          	add    $0x8,%rsp
  401bb5:	c3                   	retq   
